MPLINK 4.43, Linker
Linker Map File - Created Sun Mar 03 19:23:27 2013

                                 Section Info
                  Section       Type    Address   Location Size(Bytes)
                ---------  ---------  ---------  ---------  ---------
               _entry_scn       code   0x000000    program   0x000006
           .code___init.o       code   0x000006    program   0x000002
      InterruptVectorHigh       code   0x000008    program   0x000006
          .romdata_tick.o    romdata   0x00000e    program   0x000000
       .idata_BC_rtcc.o_i    romdata   0x00000e    program   0x000000
       .romdata_BC_rtcc.o    romdata   0x00000e    program   0x000000
        .idata_BC_pwm.o_i    romdata   0x00000e    program   0x000001
        .romdata_BC_pwm.o    romdata   0x00000e    program   0x000000
 .idata_RTCCInitClock.o_i    romdata   0x00000e    program   0x000000
 .romdata_RTCCInitClock.o    romdata   0x00000e    program   0x000000
.idata_RtccReadAlrmTime.o_i    romdata   0x00000e    program   0x000000
.romdata_RtccReadAlrmTime.o    romdata   0x00000e    program   0x000000
.idata_RtccReadTimeDate.o_i    romdata   0x00000e    program   0x000000
.romdata_RtccReadTimeDate.o    romdata   0x00000e    program   0x000000
.idata_RtccSetAlarmRpt.o_i    romdata   0x00000e    program   0x000000
.romdata_RtccSetAlarmRpt.o    romdata   0x00000e    program   0x000000
.idata_RtccSetAlarmRptCount.o_i    romdata   0x00000e    program   0x000000
.romdata_RtccSetAlarmRptCount.o    romdata   0x00000e    program   0x000000
      .idata_RtccWrOn.o_i    romdata   0x00000e    program   0x000000
      .romdata_RtccWrOn.o    romdata   0x00000e    program   0x000000
.idata_RtccWriteAlrmTime.o_i    romdata   0x00000e    program   0x000000
.romdata_RtccWriteAlrmTime.o    romdata   0x00000e    program   0x000000
.idata_RtccWriteAlrmTimeDate.o_i    romdata   0x00000e    program   0x000000
.romdata_RtccWriteAlrmTimeDate.o    romdata   0x00000e    program   0x000000
.idata_RtccWriteTimeDate.o_i    romdata   0x00000e    program   0x000000
.romdata_RtccWriteTimeDate.o    romdata   0x00000e    program   0x000000
        .idata___init.o_i    romdata   0x00000e    program   0x000000
        .romdata___init.o    romdata   0x00000e    program   0x000000
         .idata_c018i.o_i    romdata   0x00000e    program   0x000000
         .romdata_c018i.o    romdata   0x00000e    program   0x000000
       .idata_BlueCom.o_i    romdata   0x00000e    program   0x000000
       .romdata_BlueCom.o    romdata   0x00000e    program   0x000000
    .idata_Interrupts.o_i    romdata   0x00000e    program   0x000000
    .romdata_Interrupts.o    romdata   0x00000e    program   0x000000
          .idata_main.o_i    romdata   0x00000e    program   0x000000
          .romdata_main.o    romdata   0x00000e    program   0x000000
          .idata_tick.o_i    romdata   0x00000e    program   0x000000
      .idata_UARTIntC.o_i    romdata   0x00000e    program   0x000000
      .romdata_UARTIntC.o    romdata   0x00000e    program   0x000000
            .code_c018i.o       code   0x000010    program   0x000000
       .code_Interrupts.o       code   0x000010    program   0x000000
       InterruptVectorLow       code   0x000018    program   0x00024c
                   .cinit    romdata   0x000264    program   0x00000e
          .code_BC_rtcc.o       code   0x000272    program   0x000e80
          .code_BlueCom.o       code   0x0010f2    program   0x0006fa
.code_RtccWriteTimeDate.o       code   0x0017ec    program   0x000268
         .code_UARTIntC.o       code   0x001a54    program   0x000234
             .code_tick.o       code   0x001c88    program   0x000212
.code_RtccWriteAlrmTimeDate.o       code   0x001e9a    program   0x0001ec
           .code_BC_pwm.o       code   0x002086    program   0x00017e
 .code_RtccReadTimeDate.o       code   0x002204    program   0x00014e
.code_RtccWriteAlrmTime.o       code   0x002352    program   0x000146
             .code_main.o       code   0x002498    program   0x000100
               _cinit_scn       code   0x002598    program   0x00009e
 .code_RtccReadAlrmTime.o       code   0x002636    program   0x00009a
  .code_RtccSetAlarmRpt.o       code   0x0026d0    program   0x00005e
                     PROG       code   0x00272e    program   0x00005a
.code_RtccSetAlarmRptCount.o       code   0x002788    program   0x000050
         .code_RtccWrOn.o       code   0x0027d8    program   0x000034
                    .code       code   0x00280c    program   0x000020
             _startup_scn       code   0x00282c    program   0x00001c
    .code_RTCCInitClock.o       code   0x002848    program   0x00001c
      .config_3ff8_main.o    romdata   0x003ff8    program   0x000001
      .config_3ff9_main.o    romdata   0x003ff9    program   0x000001
      .config_3ffa_main.o    romdata   0x003ffa    program   0x000001
      .config_3ffb_main.o    romdata   0x003ffb    program   0x000001
      .config_3ffc_main.o    romdata   0x003ffc    program   0x000001
      .config_3ffe_main.o    romdata   0x003ffe    program   0x000001
      .config_3fff_main.o    romdata   0x003fff    program   0x000001
                MATH_DATA      udata   0x000000       data   0x000014
                 .tmpdata      udata   0x000014       data   0x000009
         .udata_BlueCom.o      udata   0x000060       data   0x00004c
        .udata_UARTIntC.o      udata   0x0000ac       data   0x00002f
         .udata_BC_rtcc.o      udata   0x0000db       data   0x00001c
            .udata_tick.o      udata   0x0000f7       data   0x000004
          .idata_BC_pwm.o      idata   0x0000fb       data   0x000001
.udata_RtccWriteAlrmTimeDate.o      udata   0x0000fc       data   0x000000
.idata_RtccWriteAlrmTime.o      idata   0x0000fc       data   0x000000
.udata_RtccWriteAlrmTime.o      udata   0x0000fc       data   0x000000
        .idata_RtccWrOn.o      idata   0x0000fc       data   0x000000
        .udata_RtccWrOn.o      udata   0x0000fc       data   0x000000
.idata_RtccSetAlarmRptCount.o      idata   0x0000fc       data   0x000000
   .udata_RTCCInitClock.o      udata   0x0000fc       data   0x000000
   .idata_RTCCInitClock.o      idata   0x0000fc       data   0x000000
.udata_RtccReadAlrmTime.o      udata   0x0000fc       data   0x000000
.idata_RtccReadAlrmTime.o      idata   0x0000fc       data   0x000000
.udata_RtccReadTimeDate.o      udata   0x0000fc       data   0x000000
.idata_RtccReadTimeDate.o      idata   0x0000fc       data   0x000000
 .udata_RtccSetAlarmRpt.o      udata   0x0000fc       data   0x000000
 .idata_RtccSetAlarmRpt.o      idata   0x0000fc       data   0x000000
.udata_RtccSetAlarmRptCount.o      udata   0x0000fc       data   0x000000
.idata_RtccWriteAlrmTimeDate.o      idata   0x0000fc       data   0x000000
.udata_RtccWriteTimeDate.o      udata   0x0000fc       data   0x000000
.idata_RtccWriteTimeDate.o      idata   0x0000fc       data   0x000000
          .udata___init.o      udata   0x0000fc       data   0x000000
          .idata___init.o      idata   0x0000fc       data   0x000000
         .idata_BC_rtcc.o      idata   0x0000fc       data   0x000000
            .idata_tick.o      idata   0x0000fc       data   0x000000
        .idata_UARTIntC.o      idata   0x0000fc       data   0x000000
            .idata_main.o      idata   0x0000fc       data   0x000000
            .udata_main.o      udata   0x0000fc       data   0x000000
      .idata_Interrupts.o      idata   0x0000fc       data   0x000000
      .udata_Interrupts.o      udata   0x0000fc       data   0x000000
         .idata_BlueCom.o      idata   0x0000fc       data   0x000000
           .idata_c018i.o      idata   0x0000fc       data   0x000000
                   .stack      udata   0x000d00       data   0x000100
           .udata_c018i.o      udata   0x000e00       data   0x00000a
          .udata_BC_pwm.o      udata   0x000e0a       data   0x00000a
              SFR_BANKED0      udata   0x000ec6       data   0x000019
              SFR_BANKED1      udata   0x000ee7       data   0x000004
              SFR_BANKED2      udata   0x000eec       data   0x000003
              SFR_BANKED3      udata   0x000ef2       data   0x000002
              SFR_BANKED4      udata   0x000ef6       data   0x000002
              SFR_BANKED5      udata   0x000efb       data   0x000005
              SFR_BANKED6      udata   0x000f3c       data   0x000007
              SFR_BANKED7      udata   0x000f48       data   0x000008
              SFR_BANKED8      udata   0x000f52       data   0x00000e
            SFR_UNBANKED0      udata   0x000f66       data   0x00009a



                              Program Memory Usage 
                               Start         End      
                           ---------   ---------      
                            0x000000    0x00000e      
                            0x000018    0x002863      
                            0x003ff8    0x003ffc      
                            0x003ffe    0x003fff      
            10338 out of 16386 program addresses used, program memory utilization is 63%



                              Symbols - Sorted by Name
                     Name    Address   Location    Storage File                     
                ---------  ---------  ---------  --------- ---------                
              ADC_Convert   0x00258c    program     extern M:\projet_jc\Projets\BlueCom\BlueCom_Electronic_Board_Software\BlueCom\Sources\main.c
                 ADC_Init   0x00256e    program     extern M:\projet_jc\Projets\BlueCom\BlueCom_Electronic_Board_Software\BlueCom\Sources\main.c
               BCM_Decode   0x001220    program     extern M:\projet_jc\Projets\BlueCom\BlueCom_Electronic_Board_Software\BlueCom\Sources\BlueCom.c
               BCM_Encode   0x001650    program     extern M:\projet_jc\Projets\BlueCom\BlueCom_Electronic_Board_Software\BlueCom\Sources\BlueCom.c
          BCM_ReceiveUART   0x0010f2    program     extern M:\projet_jc\Projets\BlueCom\BlueCom_Electronic_Board_Software\BlueCom\Sources\BlueCom.c
             BCM_Transmit   0x001516    program     extern M:\projet_jc\Projets\BlueCom\BlueCom_Electronic_Board_Software\BlueCom\Sources\BlueCom.c
         BCM_TransmitUART   0x00149e    program     extern M:\projet_jc\Projets\BlueCom\BlueCom_Electronic_Board_Software\BlueCom\Sources\BlueCom.c
                 FXM1616S   0x00272e    program     extern E:\MPASM_MPLINK_PIC18_LT_Branch_3_42\pic18-lt\cxx-framework\src\traditional\math\fxm1616s.asm
     InterruptServiceHigh   0x00001e    program     extern M:\projet_jc\Projets\BlueCom\BlueCom_Electronic_Board_Software\BlueCom\Sources\Interrupts.c
      InterruptServiceLow   0x0001aa    program     extern M:\projet_jc\Projets\BlueCom\BlueCom_Electronic_Board_Software\BlueCom\Sources\Interrupts.c
      InterruptVectorHigh   0x000008    program     extern M:\projet_jc\Projets\BlueCom\BlueCom_Electronic_Board_Software\BlueCom\Sources\Interrupts.c
       InterruptVectorLow   0x000018    program     extern M:\projet_jc\Projets\BlueCom\BlueCom_Electronic_Board_Software\BlueCom\Sources\Interrupts.c
            PWM_Generator   0x0020c2    program     extern M:\projet_jc\Projets\BlueCom\BlueCom_Electronic_Board_Software\BlueCom\Sources\BC_pwm.c
                 PWM_Init   0x002086    program     extern M:\projet_jc\Projets\BlueCom\BlueCom_Electronic_Board_Software\BlueCom\Sources\BC_pwm.c
            PWM_Readvalue   0x0021b4    program     extern M:\projet_jc\Projets\BlueCom\BlueCom_Electronic_Board_Software\BlueCom\Sources\BC_pwm.c
             PWM_Setvalue   0x002142    program     extern M:\projet_jc\Projets\BlueCom\BlueCom_Electronic_Board_Software\BlueCom\Sources\BC_pwm.c
    RTCC_SetAlarmRptCount   0x000f3e    program     extern M:\projet_jc\Projets\BlueCom\BlueCom_Electronic_Board_Software\BlueCom\Sources\BC_rtcc.c
   RTCC_checkAlarmDayTime   0x000b5c    program     extern M:\projet_jc\Projets\BlueCom\BlueCom_Electronic_Board_Software\BlueCom\Sources\BC_rtcc.c
           RTCC_configure   0x000f60    program     extern M:\projet_jc\Projets\BlueCom\BlueCom_Electronic_Board_Software\BlueCom\Sources\BC_rtcc.c
    RTCC_initAlarmDayTime   0x000a78    program     extern M:\projet_jc\Projets\BlueCom\BlueCom_Electronic_Board_Software\BlueCom\Sources\BC_rtcc.c
       RTCC_readAlarmDate   0x00060a    program     extern M:\projet_jc\Projets\BlueCom\BlueCom_Electronic_Board_Software\BlueCom\Sources\BC_rtcc.c
    RTCC_readAlarmDayTime   0x00091e    program     extern M:\projet_jc\Projets\BlueCom\BlueCom_Electronic_Board_Software\BlueCom\Sources\BC_rtcc.c
       RTCC_readAlarmTime   0x000476    program     extern M:\projet_jc\Projets\BlueCom\BlueCom_Electronic_Board_Software\BlueCom\Sources\BC_rtcc.c
        RTCC_readTimeDate   0x00033a    program     extern M:\projet_jc\Projets\BlueCom\BlueCom_Electronic_Board_Software\BlueCom\Sources\BC_rtcc.c
        RTCC_setAlarmDate   0x000546    program     extern M:\projet_jc\Projets\BlueCom\BlueCom_Electronic_Board_Software\BlueCom\Sources\BC_rtcc.c
     RTCC_setAlarmDayTime   0x0006d2    program     extern M:\projet_jc\Projets\BlueCom\BlueCom_Electronic_Board_Software\BlueCom\Sources\BC_rtcc.c
        RTCC_setAlarmTime   0x000412    program     extern M:\projet_jc\Projets\BlueCom\BlueCom_Electronic_Board_Software\BlueCom\Sources\BC_rtcc.c
         RTCC_setTimeDate   0x000272    program     extern M:\projet_jc\Projets\BlueCom\BlueCom_Electronic_Board_Software\BlueCom\Sources\BC_rtcc.c
            RtccInitClock   0x002848    program     extern E:\MPASM_MPLINK_PIC18_LT_Branch_3_42\pic18-lt\cxx-framework\src\pmc_common\rtcc\RTCCInitClock.c
         RtccReadAlrmTime   0x002636    program     extern E:\MPASM_MPLINK_PIC18_LT_Branch_3_42\pic18-lt\cxx-framework\src\pmc_common\rtcc\RtccReadAlrmTime.c
         RtccReadTimeDate   0x002204    program     extern E:\MPASM_MPLINK_PIC18_LT_Branch_3_42\pic18-lt\cxx-framework\src\pmc_common\rtcc\RtccReadTimeDate.c
          RtccSetAlarmRpt   0x0026d0    program     extern E:\MPASM_MPLINK_PIC18_LT_Branch_3_42\pic18-lt\cxx-framework\src\pmc_common\rtcc\RtccSetAlarmRpt.c
     RtccSetAlarmRptCount   0x002788    program     extern E:\MPASM_MPLINK_PIC18_LT_Branch_3_42\pic18-lt\cxx-framework\src\pmc_common\rtcc\RtccSetAlarmRptCount.c
                 RtccWrOn   0x0027d8    program     extern E:\MPASM_MPLINK_PIC18_LT_Branch_3_42\pic18-lt\cxx-framework\src\pmc_common\rtcc\RtccWrOn.c
        RtccWriteAlrmTime   0x002352    program     extern E:\MPASM_MPLINK_PIC18_LT_Branch_3_42\pic18-lt\cxx-framework\src\pmc_common\rtcc\RtccWriteAlrmTime.c
    RtccWriteAlrmTimeDate   0x001e9a    program     extern E:\MPASM_MPLINK_PIC18_LT_Branch_3_42\pic18-lt\cxx-framework\src\pmc_common\rtcc\RtccWriteAlrmTimeDate.c
        RtccWriteTimeDate   0x0017ec    program     extern E:\MPASM_MPLINK_PIC18_LT_Branch_3_42\pic18-lt\cxx-framework\src\pmc_common\rtcc\RtccWriteTimeDate.c
               TICK_Close   0x001e60    program     extern M:\projet_jc\Projets\BlueCom\BlueCom_Electronic_Board_Software\BlueCom\Sources\tick.c
                 TICK_Get   0x001daa    program     extern M:\projet_jc\Projets\BlueCom\BlueCom_Electronic_Board_Software\BlueCom\Sources\tick.c
                  TICK_IT   0x001cfa    program     extern M:\projet_jc\Projets\BlueCom\BlueCom_Electronic_Board_Software\BlueCom\Sources\tick.c
                TICK_Init   0x001c88    program     extern M:\projet_jc\Projets\BlueCom\BlueCom_Electronic_Board_Software\BlueCom\Sources\tick.c
           TICK_Is_Elapse   0x001e08    program     extern M:\projet_jc\Projets\BlueCom\BlueCom_Electronic_Board_Software\BlueCom\Sources\tick.c
                 TICK_Set   0x001d5a    program     extern M:\projet_jc\Projets\BlueCom\BlueCom_Electronic_Board_Software\BlueCom\Sources\tick.c
               TSIGN1616A   0x00277a    program     static E:\MPASM_MPLINK_PIC18_LT_Branch_3_42\pic18-lt\cxx-framework\src\traditional\math\fxm1616s.asm
         UART1_put_chaine   0x001c1e    program     extern M:\projet_jc\Projets\BlueCom\BlueCom_Electronic_Board_Software\BlueCom\Sources\UARTIntC.c
           UARTIntGetChar   0x001af2    program     extern M:\projet_jc\Projets\BlueCom\BlueCom_Electronic_Board_Software\BlueCom\Sources\UARTIntC.c
UARTIntGetRxBufferDataSize   0x001b4a    program     extern M:\projet_jc\Projets\BlueCom\BlueCom_Electronic_Board_Software\BlueCom\Sources\UARTIntC.c
UARTIntGetTxBufferEmptySpace   0x001ada    program     extern M:\projet_jc\Projets\BlueCom\BlueCom_Electronic_Board_Software\BlueCom\Sources\UARTIntC.c
               UARTIntISR   0x001b52    program     extern M:\projet_jc\Projets\BlueCom\BlueCom_Electronic_Board_Software\BlueCom\Sources\UARTIntC.c
              UARTIntInit   0x001a54    program     extern M:\projet_jc\Projets\BlueCom\BlueCom_Electronic_Board_Software\BlueCom\Sources\UARTIntC.c
           UARTIntPutChar   0x001a90    program     extern M:\projet_jc\Projets\BlueCom\BlueCom_Electronic_Board_Software\BlueCom\Sources\UARTIntC.c
       ___return_lbl00000   0x0027fc    program     static                          
       ___return_lbl00000   0x00000c    program     static                          
       ___return_lbl00000   0x000004    program     static                          
       ___return_lbl00001   0x00001c    program     static                          
       ___return_lbl00001   0x002846    program     static                          
       ___return_lbl00002   0x002634    program     static                          
               __config_0   0x003ff8    program     static M:\projet_jc\Projets\BlueCom\BlueCom_Electronic_Board_Software\BlueCom\Sources\main.c
               __config_1   0x003ff9    program     static M:\projet_jc\Projets\BlueCom\BlueCom_Electronic_Board_Software\BlueCom\Sources\main.c
               __config_2   0x003ffa    program     static M:\projet_jc\Projets\BlueCom\BlueCom_Electronic_Board_Software\BlueCom\Sources\main.c
               __config_3   0x003ffb    program     static M:\projet_jc\Projets\BlueCom\BlueCom_Electronic_Board_Software\BlueCom\Sources\main.c
               __config_4   0x003ffc    program     static M:\projet_jc\Projets\BlueCom\BlueCom_Electronic_Board_Software\BlueCom\Sources\main.c
               __config_5   0x003ffe    program     static M:\projet_jc\Projets\BlueCom\BlueCom_Electronic_Board_Software\BlueCom\Sources\main.c
               __config_6   0x003fff    program     static M:\projet_jc\Projets\BlueCom\BlueCom_Electronic_Board_Software\BlueCom\Sources\main.c
                   __init   0x000006    program     extern E:\MPASM_MPLINK_PIC18_LT_Branch_3_42\pic18-lt\cxx-framework\src\traditional\stdclib\__init.c
            __zero_memory   0x00280c    program     extern E:\MPASM_MPLINK_PIC18_LT_Branch_3_42\pic18-lt\cxx-framework\src\traditional\proc\p18f44j11.asm
                _do_cinit   0x002598    program     extern E:\MPASM_MPLINK_PIC18_LT_Branch_3_42\pic18-lt\cxx-framework\src\traditional\startup\c018i.c
                   _entry   0x000000    program     extern E:\MPASM_MPLINK_PIC18_LT_Branch_3_42\pic18-lt\cxx-framework\src\traditional\startup\c018i.c
                 _startup   0x00282c    program     extern E:\MPASM_MPLINK_PIC18_LT_Branch_3_42\pic18-lt\cxx-framework\src\traditional\startup\c018i.c
                  bcd2dec   0x001014    program     extern M:\projet_jc\Projets\BlueCom\BlueCom_Electronic_Board_Software\BlueCom\Sources\BC_rtcc.c
                compare_l   0x002822    program     static E:\MPASM_MPLINK_PIC18_LT_Branch_3_42\pic18-lt\cxx-framework\src\traditional\proc\p18f44j11.asm
                copy_loop   0x00260a    program     static                          
            copy_one_byte   0x002610    program     static                          
                     done   0x002634    program     static                          
             done_copying   0x00261e    program     static                          
                     loop   0x00283c    program     static                          
                   loop_h   0x00281a    program     static E:\MPASM_MPLINK_PIC18_LT_Branch_3_42\pic18-lt\cxx-framework\src\traditional\proc\p18f44j11.asm
                   loop_l   0x002824    program     static E:\MPASM_MPLINK_PIC18_LT_Branch_3_42\pic18-lt\cxx-framework\src\traditional\proc\p18f44j11.asm
                     main   0x002498    program     extern M:\projet_jc\Projets\BlueCom\BlueCom_Electronic_Board_Software\BlueCom\Sources\main.c
                     test   0x0025b2    program     static                          
               zero_block   0x00281a    program     static E:\MPASM_MPLINK_PIC18_LT_Branch_3_42\pic18-lt\cxx-framework\src\traditional\proc\p18f44j11.asm
                   ADCON0   0x000fc2       data     extern E:\MPASM_MPLINK_PIC18_LT_Branch_3_42\pic18-lt\cxx-framework\src\traditional\proc\p18f44j11.asm
               ADCON0bits   0x000fc2       data     extern E:\MPASM_MPLINK_PIC18_LT_Branch_3_42\pic18-lt\cxx-framework\src\traditional\proc\p18f44j11.asm
                   ADCON1   0x000fc1       data     extern E:\MPASM_MPLINK_PIC18_LT_Branch_3_42\pic18-lt\cxx-framework\src\traditional\proc\p18f44j11.asm
               ADCON1bits   0x000fc1       data     extern E:\MPASM_MPLINK_PIC18_LT_Branch_3_42\pic18-lt\cxx-framework\src\traditional\proc\p18f44j11.asm
                    ADRES   0x000fc3       data     extern E:\MPASM_MPLINK_PIC18_LT_Branch_3_42\pic18-lt\cxx-framework\src\traditional\proc\p18f44j11.asm
                   ADRESH   0x000fc4       data     extern E:\MPASM_MPLINK_PIC18_LT_Branch_3_42\pic18-lt\cxx-framework\src\traditional\proc\p18f44j11.asm
                   ADRESL   0x000fc3       data     extern E:\MPASM_MPLINK_PIC18_LT_Branch_3_42\pic18-lt\cxx-framework\src\traditional\proc\p18f44j11.asm
                  ALRMCFG   0x000f91       data     extern E:\MPASM_MPLINK_PIC18_LT_Branch_3_42\pic18-lt\cxx-framework\src\traditional\proc\p18f44j11.asm
              ALRMCFGbits   0x000f91       data     extern E:\MPASM_MPLINK_PIC18_LT_Branch_3_42\pic18-lt\cxx-framework\src\traditional\proc\p18f44j11.asm
                  ALRMRPT   0x000f90       data     extern E:\MPASM_MPLINK_PIC18_LT_Branch_3_42\pic18-lt\cxx-framework\src\traditional\proc\p18f44j11.asm
              ALRMRPTbits   0x000f90       data     extern E:\MPASM_MPLINK_PIC18_LT_Branch_3_42\pic18-lt\cxx-framework\src\traditional\proc\p18f44j11.asm
                 ALRMVALH   0x000f8f       data     extern E:\MPASM_MPLINK_PIC18_LT_Branch_3_42\pic18-lt\cxx-framework\src\traditional\proc\p18f44j11.asm
                 ALRMVALL   0x000f8e       data     extern E:\MPASM_MPLINK_PIC18_LT_Branch_3_42\pic18-lt\cxx-framework\src\traditional\proc\p18f44j11.asm
                   ANCON0   0x000f48       data     extern E:\MPASM_MPLINK_PIC18_LT_Branch_3_42\pic18-lt\cxx-framework\src\traditional\proc\p18f44j11.asm
               ANCON0bits   0x000f48       data     extern E:\MPASM_MPLINK_PIC18_LT_Branch_3_42\pic18-lt\cxx-framework\src\traditional\proc\p18f44j11.asm
                   ANCON1   0x000f49       data     extern E:\MPASM_MPLINK_PIC18_LT_Branch_3_42\pic18-lt\cxx-framework\src\traditional\proc\p18f44j11.asm
               ANCON1bits   0x000f49       data     extern E:\MPASM_MPLINK_PIC18_LT_Branch_3_42\pic18-lt\cxx-framework\src\traditional\proc\p18f44j11.asm
                  BAUDCON   0x000f7e       data     extern E:\MPASM_MPLINK_PIC18_LT_Branch_3_42\pic18-lt\cxx-framework\src\traditional\proc\p18f44j11.asm
                 BAUDCON1   0x000f7e       data     extern E:\MPASM_MPLINK_PIC18_LT_Branch_3_42\pic18-lt\cxx-framework\src\traditional\proc\p18f44j11.asm
             BAUDCON1bits   0x000f7e       data     extern E:\MPASM_MPLINK_PIC18_LT_Branch_3_42\pic18-lt\cxx-framework\src\traditional\proc\p18f44j11.asm
                 BAUDCON2   0x000f7c       data     extern E:\MPASM_MPLINK_PIC18_LT_Branch_3_42\pic18-lt\cxx-framework\src\traditional\proc\p18f44j11.asm
             BAUDCON2bits   0x000f7c       data     extern E:\MPASM_MPLINK_PIC18_LT_Branch_3_42\pic18-lt\cxx-framework\src\traditional\proc\p18f44j11.asm
              BAUDCONbits   0x000f7e       data     extern E:\MPASM_MPLINK_PIC18_LT_Branch_3_42\pic18-lt\cxx-framework\src\traditional\proc\p18f44j11.asm
                  BAUDCTL   0x000f7e       data     extern E:\MPASM_MPLINK_PIC18_LT_Branch_3_42\pic18-lt\cxx-framework\src\traditional\proc\p18f44j11.asm
              BAUDCTLbits   0x000f7e       data     extern E:\MPASM_MPLINK_PIC18_LT_Branch_3_42\pic18-lt\cxx-framework\src\traditional\proc\p18f44j11.asm
                      BSR   0x000fe0       data     extern E:\MPASM_MPLINK_PIC18_LT_Branch_3_42\pic18-lt\cxx-framework\src\traditional\proc\p18f44j11.asm
          BlueCom_Data_RX   0x00007d       data     extern M:\projet_jc\Projets\BlueCom\BlueCom_Electronic_Board_Software\BlueCom\Sources\BlueCom.c
          BlueCom_Data_TX   0x000074       data     extern M:\projet_jc\Projets\BlueCom\BlueCom_Electronic_Board_Software\BlueCom\Sources\BlueCom.c
           BlueCom_Struct   0x00006d       data     extern M:\projet_jc\Projets\BlueCom\BlueCom_Electronic_Board_Software\BlueCom\Sources\BlueCom.c
        BlueCom_outputRGB   0x00009a       data     extern M:\projet_jc\Projets\BlueCom\BlueCom_Electronic_Board_Software\BlueCom\Sources\BlueCom.c
               Buffer_PWM   0x000e12       data     static M:\projet_jc\Projets\BlueCom\BlueCom_Electronic_Board_Software\BlueCom\Sources\BC_pwm.c
                  CCP1CON   0x000fba       data     extern E:\MPASM_MPLINK_PIC18_LT_Branch_3_42\pic18-lt\cxx-framework\src\traditional\proc\p18f44j11.asm
              CCP1CONbits   0x000fba       data     extern E:\MPASM_MPLINK_PIC18_LT_Branch_3_42\pic18-lt\cxx-framework\src\traditional\proc\p18f44j11.asm
                  CCP2CON   0x000fb4       data     extern E:\MPASM_MPLINK_PIC18_LT_Branch_3_42\pic18-lt\cxx-framework\src\traditional\proc\p18f44j11.asm
              CCP2CONbits   0x000fb4       data     extern E:\MPASM_MPLINK_PIC18_LT_Branch_3_42\pic18-lt\cxx-framework\src\traditional\proc\p18f44j11.asm
                    CCPR1   0x000fbb       data     extern E:\MPASM_MPLINK_PIC18_LT_Branch_3_42\pic18-lt\cxx-framework\src\traditional\proc\p18f44j11.asm
                   CCPR1H   0x000fbc       data     extern E:\MPASM_MPLINK_PIC18_LT_Branch_3_42\pic18-lt\cxx-framework\src\traditional\proc\p18f44j11.asm
                   CCPR1L   0x000fbb       data     extern E:\MPASM_MPLINK_PIC18_LT_Branch_3_42\pic18-lt\cxx-framework\src\traditional\proc\p18f44j11.asm
                    CCPR2   0x000fb5       data     extern E:\MPASM_MPLINK_PIC18_LT_Branch_3_42\pic18-lt\cxx-framework\src\traditional\proc\p18f44j11.asm
                   CCPR2H   0x000fb6       data     extern E:\MPASM_MPLINK_PIC18_LT_Branch_3_42\pic18-lt\cxx-framework\src\traditional\proc\p18f44j11.asm
                   CCPR2L   0x000fb5       data     extern E:\MPASM_MPLINK_PIC18_LT_Branch_3_42\pic18-lt\cxx-framework\src\traditional\proc\p18f44j11.asm
                   CM1CON   0x000fd2       data     extern E:\MPASM_MPLINK_PIC18_LT_Branch_3_42\pic18-lt\cxx-framework\src\traditional\proc\p18f44j11.asm
                  CM1CON1   0x000fd2       data     extern E:\MPASM_MPLINK_PIC18_LT_Branch_3_42\pic18-lt\cxx-framework\src\traditional\proc\p18f44j11.asm
              CM1CON1bits   0x000fd2       data     extern E:\MPASM_MPLINK_PIC18_LT_Branch_3_42\pic18-lt\cxx-framework\src\traditional\proc\p18f44j11.asm
               CM1CONbits   0x000fd2       data     extern E:\MPASM_MPLINK_PIC18_LT_Branch_3_42\pic18-lt\cxx-framework\src\traditional\proc\p18f44j11.asm
                   CM2CON   0x000fd1       data     extern E:\MPASM_MPLINK_PIC18_LT_Branch_3_42\pic18-lt\cxx-framework\src\traditional\proc\p18f44j11.asm
                  CM2CON1   0x000fd1       data     extern E:\MPASM_MPLINK_PIC18_LT_Branch_3_42\pic18-lt\cxx-framework\src\traditional\proc\p18f44j11.asm
              CM2CON1bits   0x000fd1       data     extern E:\MPASM_MPLINK_PIC18_LT_Branch_3_42\pic18-lt\cxx-framework\src\traditional\proc\p18f44j11.asm
               CM2CONbits   0x000fd1       data     extern E:\MPASM_MPLINK_PIC18_LT_Branch_3_42\pic18-lt\cxx-framework\src\traditional\proc\p18f44j11.asm
                   CMSTAT   0x000f70       data     extern E:\MPASM_MPLINK_PIC18_LT_Branch_3_42\pic18-lt\cxx-framework\src\traditional\proc\p18f44j11.asm
                 CMSTATUS   0x000f70       data     extern E:\MPASM_MPLINK_PIC18_LT_Branch_3_42\pic18-lt\cxx-framework\src\traditional\proc\p18f44j11.asm
             CMSTATUSbits   0x000f70       data     extern E:\MPASM_MPLINK_PIC18_LT_Branch_3_42\pic18-lt\cxx-framework\src\traditional\proc\p18f44j11.asm
               CMSTATbits   0x000f70       data     extern E:\MPASM_MPLINK_PIC18_LT_Branch_3_42\pic18-lt\cxx-framework\src\traditional\proc\p18f44j11.asm
                 CTMUCONH   0x000fb3       data     extern E:\MPASM_MPLINK_PIC18_LT_Branch_3_42\pic18-lt\cxx-framework\src\traditional\proc\p18f44j11.asm
             CTMUCONHbits   0x000fb3       data     extern E:\MPASM_MPLINK_PIC18_LT_Branch_3_42\pic18-lt\cxx-framework\src\traditional\proc\p18f44j11.asm
                 CTMUCONL   0x000fb2       data     extern E:\MPASM_MPLINK_PIC18_LT_Branch_3_42\pic18-lt\cxx-framework\src\traditional\proc\p18f44j11.asm
             CTMUCONLbits   0x000fb2       data     extern E:\MPASM_MPLINK_PIC18_LT_Branch_3_42\pic18-lt\cxx-framework\src\traditional\proc\p18f44j11.asm
                 CTMUICON   0x000fb1       data     extern E:\MPASM_MPLINK_PIC18_LT_Branch_3_42\pic18-lt\cxx-framework\src\traditional\proc\p18f44j11.asm
             CTMUICONbits   0x000fb1       data     extern E:\MPASM_MPLINK_PIC18_LT_Branch_3_42\pic18-lt\cxx-framework\src\traditional\proc\p18f44j11.asm
                   CVRCON   0x000f53       data     extern E:\MPASM_MPLINK_PIC18_LT_Branch_3_42\pic18-lt\cxx-framework\src\traditional\proc\p18f44j11.asm
               CVRCONbits   0x000f53       data     extern E:\MPASM_MPLINK_PIC18_LT_Branch_3_42\pic18-lt\cxx-framework\src\traditional\proc\p18f44j11.asm
                   DMABCH   0x000f66       data     extern E:\MPASM_MPLINK_PIC18_LT_Branch_3_42\pic18-lt\cxx-framework\src\traditional\proc\p18f44j11.asm
               DMABCHbits   0x000f66       data     extern E:\MPASM_MPLINK_PIC18_LT_Branch_3_42\pic18-lt\cxx-framework\src\traditional\proc\p18f44j11.asm
                   DMABCL   0x000f67       data     extern E:\MPASM_MPLINK_PIC18_LT_Branch_3_42\pic18-lt\cxx-framework\src\traditional\proc\p18f44j11.asm
                  DMACON1   0x000f88       data     extern E:\MPASM_MPLINK_PIC18_LT_Branch_3_42\pic18-lt\cxx-framework\src\traditional\proc\p18f44j11.asm
              DMACON1bits   0x000f88       data     extern E:\MPASM_MPLINK_PIC18_LT_Branch_3_42\pic18-lt\cxx-framework\src\traditional\proc\p18f44j11.asm
                  DMACON2   0x000f86       data     extern E:\MPASM_MPLINK_PIC18_LT_Branch_3_42\pic18-lt\cxx-framework\src\traditional\proc\p18f44j11.asm
              DMACON2bits   0x000f86       data     extern E:\MPASM_MPLINK_PIC18_LT_Branch_3_42\pic18-lt\cxx-framework\src\traditional\proc\p18f44j11.asm
                   DSCONH   0x000f4d       data     extern E:\MPASM_MPLINK_PIC18_LT_Branch_3_42\pic18-lt\cxx-framework\src\traditional\proc\p18f44j11.asm
               DSCONHbits   0x000f4d       data     extern E:\MPASM_MPLINK_PIC18_LT_Branch_3_42\pic18-lt\cxx-framework\src\traditional\proc\p18f44j11.asm
                   DSCONL   0x000f4c       data     extern E:\MPASM_MPLINK_PIC18_LT_Branch_3_42\pic18-lt\cxx-framework\src\traditional\proc\p18f44j11.asm
               DSCONLbits   0x000f4c       data     extern E:\MPASM_MPLINK_PIC18_LT_Branch_3_42\pic18-lt\cxx-framework\src\traditional\proc\p18f44j11.asm
                   DSGPR0   0x000f4e       data     extern E:\MPASM_MPLINK_PIC18_LT_Branch_3_42\pic18-lt\cxx-framework\src\traditional\proc\p18f44j11.asm
                   DSGPR1   0x000f4f       data     extern E:\MPASM_MPLINK_PIC18_LT_Branch_3_42\pic18-lt\cxx-framework\src\traditional\proc\p18f44j11.asm
                  DSWAKEH   0x000f4b       data     extern E:\MPASM_MPLINK_PIC18_LT_Branch_3_42\pic18-lt\cxx-framework\src\traditional\proc\p18f44j11.asm
              DSWAKEHbits   0x000f4b       data     extern E:\MPASM_MPLINK_PIC18_LT_Branch_3_42\pic18-lt\cxx-framework\src\traditional\proc\p18f44j11.asm
                  DSWAKEL   0x000f4a       data     extern E:\MPASM_MPLINK_PIC18_LT_Branch_3_42\pic18-lt\cxx-framework\src\traditional\proc\p18f44j11.asm
              DSWAKELbits   0x000f4a       data     extern E:\MPASM_MPLINK_PIC18_LT_Branch_3_42\pic18-lt\cxx-framework\src\traditional\proc\p18f44j11.asm
                  ECCP1AS   0x000fbe       data     extern E:\MPASM_MPLINK_PIC18_LT_Branch_3_42\pic18-lt\cxx-framework\src\traditional\proc\p18f44j11.asm
              ECCP1ASbits   0x000fbe       data     extern E:\MPASM_MPLINK_PIC18_LT_Branch_3_42\pic18-lt\cxx-framework\src\traditional\proc\p18f44j11.asm
                 ECCP1CON   0x000fba       data     extern E:\MPASM_MPLINK_PIC18_LT_Branch_3_42\pic18-lt\cxx-framework\src\traditional\proc\p18f44j11.asm
             ECCP1CONbits   0x000fba       data     extern E:\MPASM_MPLINK_PIC18_LT_Branch_3_42\pic18-lt\cxx-framework\src\traditional\proc\p18f44j11.asm
                 ECCP1DEL   0x000fbd       data     extern E:\MPASM_MPLINK_PIC18_LT_Branch_3_42\pic18-lt\cxx-framework\src\traditional\proc\p18f44j11.asm
             ECCP1DELbits   0x000fbd       data     extern E:\MPASM_MPLINK_PIC18_LT_Branch_3_42\pic18-lt\cxx-framework\src\traditional\proc\p18f44j11.asm
                  ECCP2AS   0x000fb8       data     extern E:\MPASM_MPLINK_PIC18_LT_Branch_3_42\pic18-lt\cxx-framework\src\traditional\proc\p18f44j11.asm
              ECCP2ASbits   0x000fb8       data     extern E:\MPASM_MPLINK_PIC18_LT_Branch_3_42\pic18-lt\cxx-framework\src\traditional\proc\p18f44j11.asm
                 ECCP2CON   0x000fb4       data     extern E:\MPASM_MPLINK_PIC18_LT_Branch_3_42\pic18-lt\cxx-framework\src\traditional\proc\p18f44j11.asm
             ECCP2CONbits   0x000fb4       data     extern E:\MPASM_MPLINK_PIC18_LT_Branch_3_42\pic18-lt\cxx-framework\src\traditional\proc\p18f44j11.asm
                 ECCP2DEL   0x000fb7       data     extern E:\MPASM_MPLINK_PIC18_LT_Branch_3_42\pic18-lt\cxx-framework\src\traditional\proc\p18f44j11.asm
             ECCP2DELbits   0x000fb7       data     extern E:\MPASM_MPLINK_PIC18_LT_Branch_3_42\pic18-lt\cxx-framework\src\traditional\proc\p18f44j11.asm
                   EECON1   0x000fa6       data     extern E:\MPASM_MPLINK_PIC18_LT_Branch_3_42\pic18-lt\cxx-framework\src\traditional\proc\p18f44j11.asm
               EECON1bits   0x000fa6       data     extern E:\MPASM_MPLINK_PIC18_LT_Branch_3_42\pic18-lt\cxx-framework\src\traditional\proc\p18f44j11.asm
                   EECON2   0x000fa7       data     extern E:\MPASM_MPLINK_PIC18_LT_Branch_3_42\pic18-lt\cxx-framework\src\traditional\proc\p18f44j11.asm
                     FSR0   0x000fe9       data     extern E:\MPASM_MPLINK_PIC18_LT_Branch_3_42\pic18-lt\cxx-framework\src\traditional\proc\p18f44j11.asm
                    FSR0H   0x000fea       data     extern E:\MPASM_MPLINK_PIC18_LT_Branch_3_42\pic18-lt\cxx-framework\src\traditional\proc\p18f44j11.asm
                    FSR0L   0x000fe9       data     extern E:\MPASM_MPLINK_PIC18_LT_Branch_3_42\pic18-lt\cxx-framework\src\traditional\proc\p18f44j11.asm
                     FSR1   0x000fe1       data     extern E:\MPASM_MPLINK_PIC18_LT_Branch_3_42\pic18-lt\cxx-framework\src\traditional\proc\p18f44j11.asm
                    FSR1H   0x000fe2       data     extern E:\MPASM_MPLINK_PIC18_LT_Branch_3_42\pic18-lt\cxx-framework\src\traditional\proc\p18f44j11.asm
                    FSR1L   0x000fe1       data     extern E:\MPASM_MPLINK_PIC18_LT_Branch_3_42\pic18-lt\cxx-framework\src\traditional\proc\p18f44j11.asm
                     FSR2   0x000fd9       data     extern E:\MPASM_MPLINK_PIC18_LT_Branch_3_42\pic18-lt\cxx-framework\src\traditional\proc\p18f44j11.asm
                    FSR2H   0x000fda       data     extern E:\MPASM_MPLINK_PIC18_LT_Branch_3_42\pic18-lt\cxx-framework\src\traditional\proc\p18f44j11.asm
                    FSR2L   0x000fd9       data     extern E:\MPASM_MPLINK_PIC18_LT_Branch_3_42\pic18-lt\cxx-framework\src\traditional\proc\p18f44j11.asm
                  HLVDCON   0x000f85       data     extern E:\MPASM_MPLINK_PIC18_LT_Branch_3_42\pic18-lt\cxx-framework\src\traditional\proc\p18f44j11.asm
              HLVDCONbits   0x000f85       data     extern E:\MPASM_MPLINK_PIC18_LT_Branch_3_42\pic18-lt\cxx-framework\src\traditional\proc\p18f44j11.asm
                    INDF0   0x000fef       data     extern E:\MPASM_MPLINK_PIC18_LT_Branch_3_42\pic18-lt\cxx-framework\src\traditional\proc\p18f44j11.asm
                    INDF1   0x000fe7       data     extern E:\MPASM_MPLINK_PIC18_LT_Branch_3_42\pic18-lt\cxx-framework\src\traditional\proc\p18f44j11.asm
                    INDF2   0x000fdf       data     extern E:\MPASM_MPLINK_PIC18_LT_Branch_3_42\pic18-lt\cxx-framework\src\traditional\proc\p18f44j11.asm
                   INTCON   0x000ff2       data     extern E:\MPASM_MPLINK_PIC18_LT_Branch_3_42\pic18-lt\cxx-framework\src\traditional\proc\p18f44j11.asm
                  INTCON2   0x000ff1       data     extern E:\MPASM_MPLINK_PIC18_LT_Branch_3_42\pic18-lt\cxx-framework\src\traditional\proc\p18f44j11.asm
              INTCON2bits   0x000ff1       data     extern E:\MPASM_MPLINK_PIC18_LT_Branch_3_42\pic18-lt\cxx-framework\src\traditional\proc\p18f44j11.asm
                  INTCON3   0x000ff0       data     extern E:\MPASM_MPLINK_PIC18_LT_Branch_3_42\pic18-lt\cxx-framework\src\traditional\proc\p18f44j11.asm
              INTCON3bits   0x000ff0       data     extern E:\MPASM_MPLINK_PIC18_LT_Branch_3_42\pic18-lt\cxx-framework\src\traditional\proc\p18f44j11.asm
               INTCONbits   0x000ff2       data     extern E:\MPASM_MPLINK_PIC18_LT_Branch_3_42\pic18-lt\cxx-framework\src\traditional\proc\p18f44j11.asm
                     IPR1   0x000f9f       data     extern E:\MPASM_MPLINK_PIC18_LT_Branch_3_42\pic18-lt\cxx-framework\src\traditional\proc\p18f44j11.asm
                 IPR1bits   0x000f9f       data     extern E:\MPASM_MPLINK_PIC18_LT_Branch_3_42\pic18-lt\cxx-framework\src\traditional\proc\p18f44j11.asm
                     IPR2   0x000fa2       data     extern E:\MPASM_MPLINK_PIC18_LT_Branch_3_42\pic18-lt\cxx-framework\src\traditional\proc\p18f44j11.asm
                 IPR2bits   0x000fa2       data     extern E:\MPASM_MPLINK_PIC18_LT_Branch_3_42\pic18-lt\cxx-framework\src\traditional\proc\p18f44j11.asm
                     IPR3   0x000fa5       data     extern E:\MPASM_MPLINK_PIC18_LT_Branch_3_42\pic18-lt\cxx-framework\src\traditional\proc\p18f44j11.asm
                 IPR3bits   0x000fa5       data     extern E:\MPASM_MPLINK_PIC18_LT_Branch_3_42\pic18-lt\cxx-framework\src\traditional\proc\p18f44j11.asm
                     LATA   0x000f89       data     extern E:\MPASM_MPLINK_PIC18_LT_Branch_3_42\pic18-lt\cxx-framework\src\traditional\proc\p18f44j11.asm
                 LATAbits   0x000f89       data     extern E:\MPASM_MPLINK_PIC18_LT_Branch_3_42\pic18-lt\cxx-framework\src\traditional\proc\p18f44j11.asm
                     LATB   0x000f8a       data     extern E:\MPASM_MPLINK_PIC18_LT_Branch_3_42\pic18-lt\cxx-framework\src\traditional\proc\p18f44j11.asm
                 LATBbits   0x000f8a       data     extern E:\MPASM_MPLINK_PIC18_LT_Branch_3_42\pic18-lt\cxx-framework\src\traditional\proc\p18f44j11.asm
                     LATC   0x000f8b       data     extern E:\MPASM_MPLINK_PIC18_LT_Branch_3_42\pic18-lt\cxx-framework\src\traditional\proc\p18f44j11.asm
                 LATCbits   0x000f8b       data     extern E:\MPASM_MPLINK_PIC18_LT_Branch_3_42\pic18-lt\cxx-framework\src\traditional\proc\p18f44j11.asm
                     LATD   0x000f8c       data     extern E:\MPASM_MPLINK_PIC18_LT_Branch_3_42\pic18-lt\cxx-framework\src\traditional\proc\p18f44j11.asm
                 LATDbits   0x000f8c       data     extern E:\MPASM_MPLINK_PIC18_LT_Branch_3_42\pic18-lt\cxx-framework\src\traditional\proc\p18f44j11.asm
                     LATE   0x000f8d       data     extern E:\MPASM_MPLINK_PIC18_LT_Branch_3_42\pic18-lt\cxx-framework\src\traditional\proc\p18f44j11.asm
                 LATEbits   0x000f8d       data     extern E:\MPASM_MPLINK_PIC18_LT_Branch_3_42\pic18-lt\cxx-framework\src\traditional\proc\p18f44j11.asm
                   ODCON1   0x000f42       data     extern E:\MPASM_MPLINK_PIC18_LT_Branch_3_42\pic18-lt\cxx-framework\src\traditional\proc\p18f44j11.asm
               ODCON1bits   0x000f42       data     extern E:\MPASM_MPLINK_PIC18_LT_Branch_3_42\pic18-lt\cxx-framework\src\traditional\proc\p18f44j11.asm
                   ODCON2   0x000f41       data     extern E:\MPASM_MPLINK_PIC18_LT_Branch_3_42\pic18-lt\cxx-framework\src\traditional\proc\p18f44j11.asm
               ODCON2bits   0x000f41       data     extern E:\MPASM_MPLINK_PIC18_LT_Branch_3_42\pic18-lt\cxx-framework\src\traditional\proc\p18f44j11.asm
                   ODCON3   0x000f40       data     extern E:\MPASM_MPLINK_PIC18_LT_Branch_3_42\pic18-lt\cxx-framework\src\traditional\proc\p18f44j11.asm
               ODCON3bits   0x000f40       data     extern E:\MPASM_MPLINK_PIC18_LT_Branch_3_42\pic18-lt\cxx-framework\src\traditional\proc\p18f44j11.asm
                   OSCCON   0x000fd3       data     extern E:\MPASM_MPLINK_PIC18_LT_Branch_3_42\pic18-lt\cxx-framework\src\traditional\proc\p18f44j11.asm
               OSCCONbits   0x000fd3       data     extern E:\MPASM_MPLINK_PIC18_LT_Branch_3_42\pic18-lt\cxx-framework\src\traditional\proc\p18f44j11.asm
                  OSCTUNE   0x000f9b       data     extern E:\MPASM_MPLINK_PIC18_LT_Branch_3_42\pic18-lt\cxx-framework\src\traditional\proc\p18f44j11.asm
              OSCTUNEbits   0x000f9b       data     extern E:\MPASM_MPLINK_PIC18_LT_Branch_3_42\pic18-lt\cxx-framework\src\traditional\proc\p18f44j11.asm
                  PADCFG1   0x000f3c       data     extern E:\MPASM_MPLINK_PIC18_LT_Branch_3_42\pic18-lt\cxx-framework\src\traditional\proc\p18f44j11.asm
              PADCFG1bits   0x000f3c       data     extern E:\MPASM_MPLINK_PIC18_LT_Branch_3_42\pic18-lt\cxx-framework\src\traditional\proc\p18f44j11.asm
                       PC   0x000ff9       data     extern E:\MPASM_MPLINK_PIC18_LT_Branch_3_42\pic18-lt\cxx-framework\src\traditional\proc\p18f44j11.asm
                      PCL   0x000ff9       data     extern E:\MPASM_MPLINK_PIC18_LT_Branch_3_42\pic18-lt\cxx-framework\src\traditional\proc\p18f44j11.asm
                   PCLATH   0x000ffa       data     extern E:\MPASM_MPLINK_PIC18_LT_Branch_3_42\pic18-lt\cxx-framework\src\traditional\proc\p18f44j11.asm
                   PCLATU   0x000ffb       data     extern E:\MPASM_MPLINK_PIC18_LT_Branch_3_42\pic18-lt\cxx-framework\src\traditional\proc\p18f44j11.asm
                     PIE1   0x000f9d       data     extern E:\MPASM_MPLINK_PIC18_LT_Branch_3_42\pic18-lt\cxx-framework\src\traditional\proc\p18f44j11.asm
                 PIE1bits   0x000f9d       data     extern E:\MPASM_MPLINK_PIC18_LT_Branch_3_42\pic18-lt\cxx-framework\src\traditional\proc\p18f44j11.asm
                     PIE2   0x000fa0       data     extern E:\MPASM_MPLINK_PIC18_LT_Branch_3_42\pic18-lt\cxx-framework\src\traditional\proc\p18f44j11.asm
                 PIE2bits   0x000fa0       data     extern E:\MPASM_MPLINK_PIC18_LT_Branch_3_42\pic18-lt\cxx-framework\src\traditional\proc\p18f44j11.asm
                     PIE3   0x000fa3       data     extern E:\MPASM_MPLINK_PIC18_LT_Branch_3_42\pic18-lt\cxx-framework\src\traditional\proc\p18f44j11.asm
                 PIE3bits   0x000fa3       data     extern E:\MPASM_MPLINK_PIC18_LT_Branch_3_42\pic18-lt\cxx-framework\src\traditional\proc\p18f44j11.asm
                     PIR1   0x000f9e       data     extern E:\MPASM_MPLINK_PIC18_LT_Branch_3_42\pic18-lt\cxx-framework\src\traditional\proc\p18f44j11.asm
                 PIR1bits   0x000f9e       data     extern E:\MPASM_MPLINK_PIC18_LT_Branch_3_42\pic18-lt\cxx-framework\src\traditional\proc\p18f44j11.asm
                     PIR2   0x000fa1       data     extern E:\MPASM_MPLINK_PIC18_LT_Branch_3_42\pic18-lt\cxx-framework\src\traditional\proc\p18f44j11.asm
                 PIR2bits   0x000fa1       data     extern E:\MPASM_MPLINK_PIC18_LT_Branch_3_42\pic18-lt\cxx-framework\src\traditional\proc\p18f44j11.asm
                     PIR3   0x000fa4       data     extern E:\MPASM_MPLINK_PIC18_LT_Branch_3_42\pic18-lt\cxx-framework\src\traditional\proc\p18f44j11.asm
                 PIR3bits   0x000fa4       data     extern E:\MPASM_MPLINK_PIC18_LT_Branch_3_42\pic18-lt\cxx-framework\src\traditional\proc\p18f44j11.asm
                   PLUSW0   0x000feb       data     extern E:\MPASM_MPLINK_PIC18_LT_Branch_3_42\pic18-lt\cxx-framework\src\traditional\proc\p18f44j11.asm
                   PLUSW1   0x000fe3       data     extern E:\MPASM_MPLINK_PIC18_LT_Branch_3_42\pic18-lt\cxx-framework\src\traditional\proc\p18f44j11.asm
                   PLUSW2   0x000fdb       data     extern E:\MPASM_MPLINK_PIC18_LT_Branch_3_42\pic18-lt\cxx-framework\src\traditional\proc\p18f44j11.asm
                  PMADDRH   0x000f6f       data     extern E:\MPASM_MPLINK_PIC18_LT_Branch_3_42\pic18-lt\cxx-framework\src\traditional\proc\p18f44j11.asm
              PMADDRHbits   0x000f6f       data     extern E:\MPASM_MPLINK_PIC18_LT_Branch_3_42\pic18-lt\cxx-framework\src\traditional\proc\p18f44j11.asm
                  PMADDRL   0x000f6e       data     extern E:\MPASM_MPLINK_PIC18_LT_Branch_3_42\pic18-lt\cxx-framework\src\traditional\proc\p18f44j11.asm
                   PMCONH   0x000f5f       data     extern E:\MPASM_MPLINK_PIC18_LT_Branch_3_42\pic18-lt\cxx-framework\src\traditional\proc\p18f44j11.asm
               PMCONHbits   0x000f5f       data     extern E:\MPASM_MPLINK_PIC18_LT_Branch_3_42\pic18-lt\cxx-framework\src\traditional\proc\p18f44j11.asm
                   PMCONL   0x000f5e       data     extern E:\MPASM_MPLINK_PIC18_LT_Branch_3_42\pic18-lt\cxx-framework\src\traditional\proc\p18f44j11.asm
               PMCONLbits   0x000f5e       data     extern E:\MPASM_MPLINK_PIC18_LT_Branch_3_42\pic18-lt\cxx-framework\src\traditional\proc\p18f44j11.asm
                  PMDIN1H   0x000f6d       data     extern E:\MPASM_MPLINK_PIC18_LT_Branch_3_42\pic18-lt\cxx-framework\src\traditional\proc\p18f44j11.asm
                  PMDIN1L   0x000f6c       data     extern E:\MPASM_MPLINK_PIC18_LT_Branch_3_42\pic18-lt\cxx-framework\src\traditional\proc\p18f44j11.asm
                  PMDIN2H   0x000f59       data     extern E:\MPASM_MPLINK_PIC18_LT_Branch_3_42\pic18-lt\cxx-framework\src\traditional\proc\p18f44j11.asm
                  PMDIN2L   0x000f58       data     extern E:\MPASM_MPLINK_PIC18_LT_Branch_3_42\pic18-lt\cxx-framework\src\traditional\proc\p18f44j11.asm
                 PMDOUT1H   0x000f6f       data     extern E:\MPASM_MPLINK_PIC18_LT_Branch_3_42\pic18-lt\cxx-framework\src\traditional\proc\p18f44j11.asm
                 PMDOUT1L   0x000f6e       data     extern E:\MPASM_MPLINK_PIC18_LT_Branch_3_42\pic18-lt\cxx-framework\src\traditional\proc\p18f44j11.asm
                 PMDOUT2H   0x000f5b       data     extern E:\MPASM_MPLINK_PIC18_LT_Branch_3_42\pic18-lt\cxx-framework\src\traditional\proc\p18f44j11.asm
                 PMDOUT2L   0x000f5a       data     extern E:\MPASM_MPLINK_PIC18_LT_Branch_3_42\pic18-lt\cxx-framework\src\traditional\proc\p18f44j11.asm
                     PMEH   0x000f57       data     extern E:\MPASM_MPLINK_PIC18_LT_Branch_3_42\pic18-lt\cxx-framework\src\traditional\proc\p18f44j11.asm
                 PMEHbits   0x000f57       data     extern E:\MPASM_MPLINK_PIC18_LT_Branch_3_42\pic18-lt\cxx-framework\src\traditional\proc\p18f44j11.asm
                     PMEL   0x000f56       data     extern E:\MPASM_MPLINK_PIC18_LT_Branch_3_42\pic18-lt\cxx-framework\src\traditional\proc\p18f44j11.asm
                 PMELbits   0x000f56       data     extern E:\MPASM_MPLINK_PIC18_LT_Branch_3_42\pic18-lt\cxx-framework\src\traditional\proc\p18f44j11.asm
                  PMMODEH   0x000f5d       data     extern E:\MPASM_MPLINK_PIC18_LT_Branch_3_42\pic18-lt\cxx-framework\src\traditional\proc\p18f44j11.asm
              PMMODEHbits   0x000f5d       data     extern E:\MPASM_MPLINK_PIC18_LT_Branch_3_42\pic18-lt\cxx-framework\src\traditional\proc\p18f44j11.asm
                  PMMODEL   0x000f5c       data     extern E:\MPASM_MPLINK_PIC18_LT_Branch_3_42\pic18-lt\cxx-framework\src\traditional\proc\p18f44j11.asm
              PMMODELbits   0x000f5c       data     extern E:\MPASM_MPLINK_PIC18_LT_Branch_3_42\pic18-lt\cxx-framework\src\traditional\proc\p18f44j11.asm
                  PMSTATH   0x000f55       data     extern E:\MPASM_MPLINK_PIC18_LT_Branch_3_42\pic18-lt\cxx-framework\src\traditional\proc\p18f44j11.asm
              PMSTATHbits   0x000f55       data     extern E:\MPASM_MPLINK_PIC18_LT_Branch_3_42\pic18-lt\cxx-framework\src\traditional\proc\p18f44j11.asm
                  PMSTATL   0x000f54       data     extern E:\MPASM_MPLINK_PIC18_LT_Branch_3_42\pic18-lt\cxx-framework\src\traditional\proc\p18f44j11.asm
              PMSTATLbits   0x000f54       data     extern E:\MPASM_MPLINK_PIC18_LT_Branch_3_42\pic18-lt\cxx-framework\src\traditional\proc\p18f44j11.asm
                    PORTA   0x000f80       data     extern E:\MPASM_MPLINK_PIC18_LT_Branch_3_42\pic18-lt\cxx-framework\src\traditional\proc\p18f44j11.asm
                PORTAbits   0x000f80       data     extern E:\MPASM_MPLINK_PIC18_LT_Branch_3_42\pic18-lt\cxx-framework\src\traditional\proc\p18f44j11.asm
                    PORTB   0x000f81       data     extern E:\MPASM_MPLINK_PIC18_LT_Branch_3_42\pic18-lt\cxx-framework\src\traditional\proc\p18f44j11.asm
                PORTBbits   0x000f81       data     extern E:\MPASM_MPLINK_PIC18_LT_Branch_3_42\pic18-lt\cxx-framework\src\traditional\proc\p18f44j11.asm
                    PORTC   0x000f82       data     extern E:\MPASM_MPLINK_PIC18_LT_Branch_3_42\pic18-lt\cxx-framework\src\traditional\proc\p18f44j11.asm
                PORTCbits   0x000f82       data     extern E:\MPASM_MPLINK_PIC18_LT_Branch_3_42\pic18-lt\cxx-framework\src\traditional\proc\p18f44j11.asm
                    PORTD   0x000f83       data     extern E:\MPASM_MPLINK_PIC18_LT_Branch_3_42\pic18-lt\cxx-framework\src\traditional\proc\p18f44j11.asm
                PORTDbits   0x000f83       data     extern E:\MPASM_MPLINK_PIC18_LT_Branch_3_42\pic18-lt\cxx-framework\src\traditional\proc\p18f44j11.asm
                    PORTE   0x000f84       data     extern E:\MPASM_MPLINK_PIC18_LT_Branch_3_42\pic18-lt\cxx-framework\src\traditional\proc\p18f44j11.asm
                PORTEbits   0x000f84       data     extern E:\MPASM_MPLINK_PIC18_LT_Branch_3_42\pic18-lt\cxx-framework\src\traditional\proc\p18f44j11.asm
                 POSTDEC0   0x000fed       data     extern E:\MPASM_MPLINK_PIC18_LT_Branch_3_42\pic18-lt\cxx-framework\src\traditional\proc\p18f44j11.asm
                 POSTDEC1   0x000fe5       data     extern E:\MPASM_MPLINK_PIC18_LT_Branch_3_42\pic18-lt\cxx-framework\src\traditional\proc\p18f44j11.asm
                 POSTDEC2   0x000fdd       data     extern E:\MPASM_MPLINK_PIC18_LT_Branch_3_42\pic18-lt\cxx-framework\src\traditional\proc\p18f44j11.asm
                 POSTINC0   0x000fee       data     extern E:\MPASM_MPLINK_PIC18_LT_Branch_3_42\pic18-lt\cxx-framework\src\traditional\proc\p18f44j11.asm
                 POSTINC1   0x000fe6       data     extern E:\MPASM_MPLINK_PIC18_LT_Branch_3_42\pic18-lt\cxx-framework\src\traditional\proc\p18f44j11.asm
                 POSTINC2   0x000fde       data     extern E:\MPASM_MPLINK_PIC18_LT_Branch_3_42\pic18-lt\cxx-framework\src\traditional\proc\p18f44j11.asm
                   PPSCON   0x000eff       data     extern E:\MPASM_MPLINK_PIC18_LT_Branch_3_42\pic18-lt\cxx-framework\src\traditional\proc\p18f44j11.asm
               PPSCONbits   0x000eff       data     extern E:\MPASM_MPLINK_PIC18_LT_Branch_3_42\pic18-lt\cxx-framework\src\traditional\proc\p18f44j11.asm
                      PR2   0x000fcb       data     extern E:\MPASM_MPLINK_PIC18_LT_Branch_3_42\pic18-lt\cxx-framework\src\traditional\proc\p18f44j11.asm
                      PR4   0x000f77       data     extern E:\MPASM_MPLINK_PIC18_LT_Branch_3_42\pic18-lt\cxx-framework\src\traditional\proc\p18f44j11.asm
                  PREINC0   0x000fec       data     extern E:\MPASM_MPLINK_PIC18_LT_Branch_3_42\pic18-lt\cxx-framework\src\traditional\proc\p18f44j11.asm
                  PREINC1   0x000fe4       data     extern E:\MPASM_MPLINK_PIC18_LT_Branch_3_42\pic18-lt\cxx-framework\src\traditional\proc\p18f44j11.asm
                  PREINC2   0x000fdc       data     extern E:\MPASM_MPLINK_PIC18_LT_Branch_3_42\pic18-lt\cxx-framework\src\traditional\proc\p18f44j11.asm
                     PROD   0x000ff3       data     extern E:\MPASM_MPLINK_PIC18_LT_Branch_3_42\pic18-lt\cxx-framework\src\traditional\proc\p18f44j11.asm
                    PRODH   0x000ff4       data     extern E:\MPASM_MPLINK_PIC18_LT_Branch_3_42\pic18-lt\cxx-framework\src\traditional\proc\p18f44j11.asm
                    PRODL   0x000ff3       data     extern E:\MPASM_MPLINK_PIC18_LT_Branch_3_42\pic18-lt\cxx-framework\src\traditional\proc\p18f44j11.asm
                 PSTR1CON   0x000fbf       data     extern E:\MPASM_MPLINK_PIC18_LT_Branch_3_42\pic18-lt\cxx-framework\src\traditional\proc\p18f44j11.asm
             PSTR1CONbits   0x000fbf       data     extern E:\MPASM_MPLINK_PIC18_LT_Branch_3_42\pic18-lt\cxx-framework\src\traditional\proc\p18f44j11.asm
                 PSTR2CON   0x000fb9       data     extern E:\MPASM_MPLINK_PIC18_LT_Branch_3_42\pic18-lt\cxx-framework\src\traditional\proc\p18f44j11.asm
             PSTR2CONbits   0x000fb9       data     extern E:\MPASM_MPLINK_PIC18_LT_Branch_3_42\pic18-lt\cxx-framework\src\traditional\proc\p18f44j11.asm
                  PWM1CON   0x000fbd       data     extern E:\MPASM_MPLINK_PIC18_LT_Branch_3_42\pic18-lt\cxx-framework\src\traditional\proc\p18f44j11.asm
              PWM1CONbits   0x000fbd       data     extern E:\MPASM_MPLINK_PIC18_LT_Branch_3_42\pic18-lt\cxx-framework\src\traditional\proc\p18f44j11.asm
                  PWM2CON   0x000fb7       data     extern E:\MPASM_MPLINK_PIC18_LT_Branch_3_42\pic18-lt\cxx-framework\src\traditional\proc\p18f44j11.asm
              PWM2CONbits   0x000fb7       data     extern E:\MPASM_MPLINK_PIC18_LT_Branch_3_42\pic18-lt\cxx-framework\src\traditional\proc\p18f44j11.asm
                 PWM_Time   0x0000fb       data     static M:\projet_jc\Projets\BlueCom\BlueCom_Electronic_Board_Software\BlueCom\Sources\BC_pwm.c
                PWM_Value   0x000e0a       data     extern M:\projet_jc\Projets\BlueCom\BlueCom_Electronic_Board_Software\BlueCom\Sources\BC_pwm.c
                     RCON   0x000fd0       data     extern E:\MPASM_MPLINK_PIC18_LT_Branch_3_42\pic18-lt\cxx-framework\src\traditional\proc\p18f44j11.asm
                 RCONbits   0x000fd0       data     extern E:\MPASM_MPLINK_PIC18_LT_Branch_3_42\pic18-lt\cxx-framework\src\traditional\proc\p18f44j11.asm
                    RCREG   0x000faf       data     extern E:\MPASM_MPLINK_PIC18_LT_Branch_3_42\pic18-lt\cxx-framework\src\traditional\proc\p18f44j11.asm
                   RCREG1   0x000faf       data     extern E:\MPASM_MPLINK_PIC18_LT_Branch_3_42\pic18-lt\cxx-framework\src\traditional\proc\p18f44j11.asm
                   RCREG2   0x000faa       data     extern E:\MPASM_MPLINK_PIC18_LT_Branch_3_42\pic18-lt\cxx-framework\src\traditional\proc\p18f44j11.asm
                    RCSTA   0x000fac       data     extern E:\MPASM_MPLINK_PIC18_LT_Branch_3_42\pic18-lt\cxx-framework\src\traditional\proc\p18f44j11.asm
                   RCSTA1   0x000fac       data     extern E:\MPASM_MPLINK_PIC18_LT_Branch_3_42\pic18-lt\cxx-framework\src\traditional\proc\p18f44j11.asm
               RCSTA1bits   0x000fac       data     extern E:\MPASM_MPLINK_PIC18_LT_Branch_3_42\pic18-lt\cxx-framework\src\traditional\proc\p18f44j11.asm
                   RCSTA2   0x000f9c       data     extern E:\MPASM_MPLINK_PIC18_LT_Branch_3_42\pic18-lt\cxx-framework\src\traditional\proc\p18f44j11.asm
               RCSTA2bits   0x000f9c       data     extern E:\MPASM_MPLINK_PIC18_LT_Branch_3_42\pic18-lt\cxx-framework\src\traditional\proc\p18f44j11.asm
                RCSTAbits   0x000fac       data     extern E:\MPASM_MPLINK_PIC18_LT_Branch_3_42\pic18-lt\cxx-framework\src\traditional\proc\p18f44j11.asm
                  REFOCON   0x000f3d       data     extern E:\MPASM_MPLINK_PIC18_LT_Branch_3_42\pic18-lt\cxx-framework\src\traditional\proc\p18f44j11.asm
              REFOCONbits   0x000f3d       data     extern E:\MPASM_MPLINK_PIC18_LT_Branch_3_42\pic18-lt\cxx-framework\src\traditional\proc\p18f44j11.asm
                   RPINR1   0x000ee7       data     extern E:\MPASM_MPLINK_PIC18_LT_Branch_3_42\pic18-lt\cxx-framework\src\traditional\proc\p18f44j11.asm
                  RPINR12   0x000ef2       data     extern E:\MPASM_MPLINK_PIC18_LT_Branch_3_42\pic18-lt\cxx-framework\src\traditional\proc\p18f44j11.asm
                  RPINR13   0x000ef3       data     extern E:\MPASM_MPLINK_PIC18_LT_Branch_3_42\pic18-lt\cxx-framework\src\traditional\proc\p18f44j11.asm
                  RPINR16   0x000ef6       data     extern E:\MPASM_MPLINK_PIC18_LT_Branch_3_42\pic18-lt\cxx-framework\src\traditional\proc\p18f44j11.asm
                  RPINR17   0x000ef7       data     extern E:\MPASM_MPLINK_PIC18_LT_Branch_3_42\pic18-lt\cxx-framework\src\traditional\proc\p18f44j11.asm
                   RPINR2   0x000ee8       data     extern E:\MPASM_MPLINK_PIC18_LT_Branch_3_42\pic18-lt\cxx-framework\src\traditional\proc\p18f44j11.asm
                  RPINR21   0x000efb       data     extern E:\MPASM_MPLINK_PIC18_LT_Branch_3_42\pic18-lt\cxx-framework\src\traditional\proc\p18f44j11.asm
                  RPINR22   0x000efc       data     extern E:\MPASM_MPLINK_PIC18_LT_Branch_3_42\pic18-lt\cxx-framework\src\traditional\proc\p18f44j11.asm
                  RPINR23   0x000efd       data     extern E:\MPASM_MPLINK_PIC18_LT_Branch_3_42\pic18-lt\cxx-framework\src\traditional\proc\p18f44j11.asm
                  RPINR24   0x000efe       data     extern E:\MPASM_MPLINK_PIC18_LT_Branch_3_42\pic18-lt\cxx-framework\src\traditional\proc\p18f44j11.asm
                   RPINR3   0x000ee9       data     extern E:\MPASM_MPLINK_PIC18_LT_Branch_3_42\pic18-lt\cxx-framework\src\traditional\proc\p18f44j11.asm
                   RPINR4   0x000eea       data     extern E:\MPASM_MPLINK_PIC18_LT_Branch_3_42\pic18-lt\cxx-framework\src\traditional\proc\p18f44j11.asm
                   RPINR6   0x000eec       data     extern E:\MPASM_MPLINK_PIC18_LT_Branch_3_42\pic18-lt\cxx-framework\src\traditional\proc\p18f44j11.asm
                   RPINR7   0x000eed       data     extern E:\MPASM_MPLINK_PIC18_LT_Branch_3_42\pic18-lt\cxx-framework\src\traditional\proc\p18f44j11.asm
                   RPINR8   0x000eee       data     extern E:\MPASM_MPLINK_PIC18_LT_Branch_3_42\pic18-lt\cxx-framework\src\traditional\proc\p18f44j11.asm
                    RPOR0   0x000ec6       data     extern E:\MPASM_MPLINK_PIC18_LT_Branch_3_42\pic18-lt\cxx-framework\src\traditional\proc\p18f44j11.asm
                    RPOR1   0x000ec7       data     extern E:\MPASM_MPLINK_PIC18_LT_Branch_3_42\pic18-lt\cxx-framework\src\traditional\proc\p18f44j11.asm
                   RPOR10   0x000ed0       data     extern E:\MPASM_MPLINK_PIC18_LT_Branch_3_42\pic18-lt\cxx-framework\src\traditional\proc\p18f44j11.asm
                   RPOR11   0x000ed1       data     extern E:\MPASM_MPLINK_PIC18_LT_Branch_3_42\pic18-lt\cxx-framework\src\traditional\proc\p18f44j11.asm
                   RPOR12   0x000ed2       data     extern E:\MPASM_MPLINK_PIC18_LT_Branch_3_42\pic18-lt\cxx-framework\src\traditional\proc\p18f44j11.asm
                   RPOR13   0x000ed3       data     extern E:\MPASM_MPLINK_PIC18_LT_Branch_3_42\pic18-lt\cxx-framework\src\traditional\proc\p18f44j11.asm
                   RPOR14   0x000ed4       data     extern E:\MPASM_MPLINK_PIC18_LT_Branch_3_42\pic18-lt\cxx-framework\src\traditional\proc\p18f44j11.asm
               RPOR14bits   0x000ed4       data     extern E:\MPASM_MPLINK_PIC18_LT_Branch_3_42\pic18-lt\cxx-framework\src\traditional\proc\p18f44j11.asm
                   RPOR15   0x000ed5       data     extern E:\MPASM_MPLINK_PIC18_LT_Branch_3_42\pic18-lt\cxx-framework\src\traditional\proc\p18f44j11.asm
               RPOR15bits   0x000ed5       data     extern E:\MPASM_MPLINK_PIC18_LT_Branch_3_42\pic18-lt\cxx-framework\src\traditional\proc\p18f44j11.asm
                   RPOR16   0x000ed6       data     extern E:\MPASM_MPLINK_PIC18_LT_Branch_3_42\pic18-lt\cxx-framework\src\traditional\proc\p18f44j11.asm
               RPOR16bits   0x000ed6       data     extern E:\MPASM_MPLINK_PIC18_LT_Branch_3_42\pic18-lt\cxx-framework\src\traditional\proc\p18f44j11.asm
                   RPOR17   0x000ed7       data     extern E:\MPASM_MPLINK_PIC18_LT_Branch_3_42\pic18-lt\cxx-framework\src\traditional\proc\p18f44j11.asm
                   RPOR18   0x000ed8       data     extern E:\MPASM_MPLINK_PIC18_LT_Branch_3_42\pic18-lt\cxx-framework\src\traditional\proc\p18f44j11.asm
                   RPOR19   0x000ed9       data     extern E:\MPASM_MPLINK_PIC18_LT_Branch_3_42\pic18-lt\cxx-framework\src\traditional\proc\p18f44j11.asm
                    RPOR2   0x000ec8       data     extern E:\MPASM_MPLINK_PIC18_LT_Branch_3_42\pic18-lt\cxx-framework\src\traditional\proc\p18f44j11.asm
                   RPOR20   0x000eda       data     extern E:\MPASM_MPLINK_PIC18_LT_Branch_3_42\pic18-lt\cxx-framework\src\traditional\proc\p18f44j11.asm
                   RPOR21   0x000edb       data     extern E:\MPASM_MPLINK_PIC18_LT_Branch_3_42\pic18-lt\cxx-framework\src\traditional\proc\p18f44j11.asm
                   RPOR22   0x000edc       data     extern E:\MPASM_MPLINK_PIC18_LT_Branch_3_42\pic18-lt\cxx-framework\src\traditional\proc\p18f44j11.asm
                   RPOR23   0x000edd       data     extern E:\MPASM_MPLINK_PIC18_LT_Branch_3_42\pic18-lt\cxx-framework\src\traditional\proc\p18f44j11.asm
                   RPOR24   0x000ede       data     extern E:\MPASM_MPLINK_PIC18_LT_Branch_3_42\pic18-lt\cxx-framework\src\traditional\proc\p18f44j11.asm
                    RPOR3   0x000ec9       data     extern E:\MPASM_MPLINK_PIC18_LT_Branch_3_42\pic18-lt\cxx-framework\src\traditional\proc\p18f44j11.asm
                    RPOR4   0x000eca       data     extern E:\MPASM_MPLINK_PIC18_LT_Branch_3_42\pic18-lt\cxx-framework\src\traditional\proc\p18f44j11.asm
                    RPOR5   0x000ecb       data     extern E:\MPASM_MPLINK_PIC18_LT_Branch_3_42\pic18-lt\cxx-framework\src\traditional\proc\p18f44j11.asm
                    RPOR6   0x000ecc       data     extern E:\MPASM_MPLINK_PIC18_LT_Branch_3_42\pic18-lt\cxx-framework\src\traditional\proc\p18f44j11.asm
                    RPOR7   0x000ecd       data     extern E:\MPASM_MPLINK_PIC18_LT_Branch_3_42\pic18-lt\cxx-framework\src\traditional\proc\p18f44j11.asm
                    RPOR8   0x000ece       data     extern E:\MPASM_MPLINK_PIC18_LT_Branch_3_42\pic18-lt\cxx-framework\src\traditional\proc\p18f44j11.asm
                    RPOR9   0x000ecf       data     extern E:\MPASM_MPLINK_PIC18_LT_Branch_3_42\pic18-lt\cxx-framework\src\traditional\proc\p18f44j11.asm
                   RTCCAL   0x000f3e       data     extern E:\MPASM_MPLINK_PIC18_LT_Branch_3_42\pic18-lt\cxx-framework\src\traditional\proc\p18f44j11.asm
               RTCCALbits   0x000f3e       data     extern E:\MPASM_MPLINK_PIC18_LT_Branch_3_42\pic18-lt\cxx-framework\src\traditional\proc\p18f44j11.asm
                   RTCCFG   0x000f3f       data     extern E:\MPASM_MPLINK_PIC18_LT_Branch_3_42\pic18-lt\cxx-framework\src\traditional\proc\p18f44j11.asm
               RTCCFGbits   0x000f3f       data     extern E:\MPASM_MPLINK_PIC18_LT_Branch_3_42\pic18-lt\cxx-framework\src\traditional\proc\p18f44j11.asm
                  RTCVALH   0x000f99       data     extern E:\MPASM_MPLINK_PIC18_LT_Branch_3_42\pic18-lt\cxx-framework\src\traditional\proc\p18f44j11.asm
                  RTCVALL   0x000f98       data     extern E:\MPASM_MPLINK_PIC18_LT_Branch_3_42\pic18-lt\cxx-framework\src\traditional\proc\p18f44j11.asm
                  RXADDRH   0x000f68       data     extern E:\MPASM_MPLINK_PIC18_LT_Branch_3_42\pic18-lt\cxx-framework\src\traditional\proc\p18f44j11.asm
              RXADDRHbits   0x000f68       data     extern E:\MPASM_MPLINK_PIC18_LT_Branch_3_42\pic18-lt\cxx-framework\src\traditional\proc\p18f44j11.asm
                  RXADDRL   0x000f69       data     extern E:\MPASM_MPLINK_PIC18_LT_Branch_3_42\pic18-lt\cxx-framework\src\traditional\proc\p18f44j11.asm
         RtccAlarmOutput0   0x000086       data     extern M:\projet_jc\Projets\BlueCom\BlueCom_Electronic_Board_Software\BlueCom\Sources\BlueCom.c
       RtccAlarmOutputRGB   0x000090       data     extern M:\projet_jc\Projets\BlueCom\BlueCom_Electronic_Board_Software\BlueCom\Sources\BlueCom.c
             RtccAlrmTime   0x0000f3       data     extern M:\projet_jc\Projets\BlueCom\BlueCom_Electronic_Board_Software\BlueCom\Sources\BC_rtcc.c
         RtccAlrmTimeDate   0x0000e3       data     extern M:\projet_jc\Projets\BlueCom\BlueCom_Electronic_Board_Software\BlueCom\Sources\BC_rtcc.c
             RtccTimeDate   0x0000db       data     extern M:\projet_jc\Projets\BlueCom\BlueCom_Electronic_Board_Software\BlueCom\Sources\BC_rtcc.c
       Rtcc_read_TimeDate   0x0000eb       data     extern M:\projet_jc\Projets\BlueCom\BlueCom_Electronic_Board_Software\BlueCom\Sources\BC_rtcc.c
                     SIGN   0x000000       data     extern E:\MPASM_MPLINK_PIC18_LT_Branch_3_42\pic18-lt\cxx-framework\src\traditional\math\cmath18.asm
                    SPBRG   0x000fb0       data     extern E:\MPASM_MPLINK_PIC18_LT_Branch_3_42\pic18-lt\cxx-framework\src\traditional\proc\p18f44j11.asm
                   SPBRG1   0x000fb0       data     extern E:\MPASM_MPLINK_PIC18_LT_Branch_3_42\pic18-lt\cxx-framework\src\traditional\proc\p18f44j11.asm
                   SPBRG2   0x000fab       data     extern E:\MPASM_MPLINK_PIC18_LT_Branch_3_42\pic18-lt\cxx-framework\src\traditional\proc\p18f44j11.asm
                   SPBRGH   0x000f7f       data     extern E:\MPASM_MPLINK_PIC18_LT_Branch_3_42\pic18-lt\cxx-framework\src\traditional\proc\p18f44j11.asm
                  SPBRGH1   0x000f7f       data     extern E:\MPASM_MPLINK_PIC18_LT_Branch_3_42\pic18-lt\cxx-framework\src\traditional\proc\p18f44j11.asm
                  SPBRGH2   0x000f7d       data     extern E:\MPASM_MPLINK_PIC18_LT_Branch_3_42\pic18-lt\cxx-framework\src\traditional\proc\p18f44j11.asm
                  SSP1ADD   0x000fc8       data     extern E:\MPASM_MPLINK_PIC18_LT_Branch_3_42\pic18-lt\cxx-framework\src\traditional\proc\p18f44j11.asm
              SSP1ADDbits   0x000fc8       data     extern E:\MPASM_MPLINK_PIC18_LT_Branch_3_42\pic18-lt\cxx-framework\src\traditional\proc\p18f44j11.asm
                  SSP1BUF   0x000fc9       data     extern E:\MPASM_MPLINK_PIC18_LT_Branch_3_42\pic18-lt\cxx-framework\src\traditional\proc\p18f44j11.asm
                 SSP1CON1   0x000fc6       data     extern E:\MPASM_MPLINK_PIC18_LT_Branch_3_42\pic18-lt\cxx-framework\src\traditional\proc\p18f44j11.asm
             SSP1CON1bits   0x000fc6       data     extern E:\MPASM_MPLINK_PIC18_LT_Branch_3_42\pic18-lt\cxx-framework\src\traditional\proc\p18f44j11.asm
                 SSP1CON2   0x000fc5       data     extern E:\MPASM_MPLINK_PIC18_LT_Branch_3_42\pic18-lt\cxx-framework\src\traditional\proc\p18f44j11.asm
             SSP1CON2bits   0x000fc5       data     extern E:\MPASM_MPLINK_PIC18_LT_Branch_3_42\pic18-lt\cxx-framework\src\traditional\proc\p18f44j11.asm
                 SSP1STAT   0x000fc7       data     extern E:\MPASM_MPLINK_PIC18_LT_Branch_3_42\pic18-lt\cxx-framework\src\traditional\proc\p18f44j11.asm
             SSP1STATbits   0x000fc7       data     extern E:\MPASM_MPLINK_PIC18_LT_Branch_3_42\pic18-lt\cxx-framework\src\traditional\proc\p18f44j11.asm
                  SSP2ADD   0x000f74       data     extern E:\MPASM_MPLINK_PIC18_LT_Branch_3_42\pic18-lt\cxx-framework\src\traditional\proc\p18f44j11.asm
              SSP2ADDbits   0x000f74       data     extern E:\MPASM_MPLINK_PIC18_LT_Branch_3_42\pic18-lt\cxx-framework\src\traditional\proc\p18f44j11.asm
                  SSP2BUF   0x000f75       data     extern E:\MPASM_MPLINK_PIC18_LT_Branch_3_42\pic18-lt\cxx-framework\src\traditional\proc\p18f44j11.asm
                 SSP2CON1   0x000f72       data     extern E:\MPASM_MPLINK_PIC18_LT_Branch_3_42\pic18-lt\cxx-framework\src\traditional\proc\p18f44j11.asm
             SSP2CON1bits   0x000f72       data     extern E:\MPASM_MPLINK_PIC18_LT_Branch_3_42\pic18-lt\cxx-framework\src\traditional\proc\p18f44j11.asm
                 SSP2CON2   0x000f71       data     extern E:\MPASM_MPLINK_PIC18_LT_Branch_3_42\pic18-lt\cxx-framework\src\traditional\proc\p18f44j11.asm
             SSP2CON2bits   0x000f71       data     extern E:\MPASM_MPLINK_PIC18_LT_Branch_3_42\pic18-lt\cxx-framework\src\traditional\proc\p18f44j11.asm
                 SSP2STAT   0x000f73       data     extern E:\MPASM_MPLINK_PIC18_LT_Branch_3_42\pic18-lt\cxx-framework\src\traditional\proc\p18f44j11.asm
             SSP2STATbits   0x000f73       data     extern E:\MPASM_MPLINK_PIC18_LT_Branch_3_42\pic18-lt\cxx-framework\src\traditional\proc\p18f44j11.asm
                   SSPADD   0x000fc8       data     extern E:\MPASM_MPLINK_PIC18_LT_Branch_3_42\pic18-lt\cxx-framework\src\traditional\proc\p18f44j11.asm
               SSPADDbits   0x000fc8       data     extern E:\MPASM_MPLINK_PIC18_LT_Branch_3_42\pic18-lt\cxx-framework\src\traditional\proc\p18f44j11.asm
                   SSPBUF   0x000fc9       data     extern E:\MPASM_MPLINK_PIC18_LT_Branch_3_42\pic18-lt\cxx-framework\src\traditional\proc\p18f44j11.asm
                  SSPCON1   0x000fc6       data     extern E:\MPASM_MPLINK_PIC18_LT_Branch_3_42\pic18-lt\cxx-framework\src\traditional\proc\p18f44j11.asm
              SSPCON1bits   0x000fc6       data     extern E:\MPASM_MPLINK_PIC18_LT_Branch_3_42\pic18-lt\cxx-framework\src\traditional\proc\p18f44j11.asm
                  SSPCON2   0x000fc5       data     extern E:\MPASM_MPLINK_PIC18_LT_Branch_3_42\pic18-lt\cxx-framework\src\traditional\proc\p18f44j11.asm
              SSPCON2bits   0x000fc5       data     extern E:\MPASM_MPLINK_PIC18_LT_Branch_3_42\pic18-lt\cxx-framework\src\traditional\proc\p18f44j11.asm
                  SSPSTAT   0x000fc7       data     extern E:\MPASM_MPLINK_PIC18_LT_Branch_3_42\pic18-lt\cxx-framework\src\traditional\proc\p18f44j11.asm
              SSPSTATbits   0x000fc7       data     extern E:\MPASM_MPLINK_PIC18_LT_Branch_3_42\pic18-lt\cxx-framework\src\traditional\proc\p18f44j11.asm
                   STATUS   0x000fd8       data     extern E:\MPASM_MPLINK_PIC18_LT_Branch_3_42\pic18-lt\cxx-framework\src\traditional\proc\p18f44j11.asm
               STATUSbits   0x000fd8       data     extern E:\MPASM_MPLINK_PIC18_LT_Branch_3_42\pic18-lt\cxx-framework\src\traditional\proc\p18f44j11.asm
                   STKPTR   0x000ffc       data     extern E:\MPASM_MPLINK_PIC18_LT_Branch_3_42\pic18-lt\cxx-framework\src\traditional\proc\p18f44j11.asm
               STKPTRbits   0x000ffc       data     extern E:\MPASM_MPLINK_PIC18_LT_Branch_3_42\pic18-lt\cxx-framework\src\traditional\proc\p18f44j11.asm
                    T0CON   0x000fd5       data     extern E:\MPASM_MPLINK_PIC18_LT_Branch_3_42\pic18-lt\cxx-framework\src\traditional\proc\p18f44j11.asm
                T0CONbits   0x000fd5       data     extern E:\MPASM_MPLINK_PIC18_LT_Branch_3_42\pic18-lt\cxx-framework\src\traditional\proc\p18f44j11.asm
                    T1CON   0x000fcd       data     extern E:\MPASM_MPLINK_PIC18_LT_Branch_3_42\pic18-lt\cxx-framework\src\traditional\proc\p18f44j11.asm
                T1CONbits   0x000fcd       data     extern E:\MPASM_MPLINK_PIC18_LT_Branch_3_42\pic18-lt\cxx-framework\src\traditional\proc\p18f44j11.asm
                   T1GCON   0x000f9a       data     extern E:\MPASM_MPLINK_PIC18_LT_Branch_3_42\pic18-lt\cxx-framework\src\traditional\proc\p18f44j11.asm
               T1GCONbits   0x000f9a       data     extern E:\MPASM_MPLINK_PIC18_LT_Branch_3_42\pic18-lt\cxx-framework\src\traditional\proc\p18f44j11.asm
                    T2CON   0x000fca       data     extern E:\MPASM_MPLINK_PIC18_LT_Branch_3_42\pic18-lt\cxx-framework\src\traditional\proc\p18f44j11.asm
                T2CONbits   0x000fca       data     extern E:\MPASM_MPLINK_PIC18_LT_Branch_3_42\pic18-lt\cxx-framework\src\traditional\proc\p18f44j11.asm
                    T3CON   0x000f79       data     extern E:\MPASM_MPLINK_PIC18_LT_Branch_3_42\pic18-lt\cxx-framework\src\traditional\proc\p18f44j11.asm
                T3CONbits   0x000f79       data     extern E:\MPASM_MPLINK_PIC18_LT_Branch_3_42\pic18-lt\cxx-framework\src\traditional\proc\p18f44j11.asm
                   T3GCON   0x000f97       data     extern E:\MPASM_MPLINK_PIC18_LT_Branch_3_42\pic18-lt\cxx-framework\src\traditional\proc\p18f44j11.asm
               T3GCONbits   0x000f97       data     extern E:\MPASM_MPLINK_PIC18_LT_Branch_3_42\pic18-lt\cxx-framework\src\traditional\proc\p18f44j11.asm
                    T4CON   0x000f76       data     extern E:\MPASM_MPLINK_PIC18_LT_Branch_3_42\pic18-lt\cxx-framework\src\traditional\proc\p18f44j11.asm
                T4CONbits   0x000f76       data     extern E:\MPASM_MPLINK_PIC18_LT_Branch_3_42\pic18-lt\cxx-framework\src\traditional\proc\p18f44j11.asm
                   TABLAT   0x000ff5       data     extern E:\MPASM_MPLINK_PIC18_LT_Branch_3_42\pic18-lt\cxx-framework\src\traditional\proc\p18f44j11.asm
                   TBLPTR   0x000ff6       data     extern E:\MPASM_MPLINK_PIC18_LT_Branch_3_42\pic18-lt\cxx-framework\src\traditional\proc\p18f44j11.asm
                  TBLPTRH   0x000ff7       data     extern E:\MPASM_MPLINK_PIC18_LT_Branch_3_42\pic18-lt\cxx-framework\src\traditional\proc\p18f44j11.asm
                  TBLPTRL   0x000ff6       data     extern E:\MPASM_MPLINK_PIC18_LT_Branch_3_42\pic18-lt\cxx-framework\src\traditional\proc\p18f44j11.asm
                  TBLPTRU   0x000ff8       data     extern E:\MPASM_MPLINK_PIC18_LT_Branch_3_42\pic18-lt\cxx-framework\src\traditional\proc\p18f44j11.asm
                  TCLKCON   0x000f52       data     extern E:\MPASM_MPLINK_PIC18_LT_Branch_3_42\pic18-lt\cxx-framework\src\traditional\proc\p18f44j11.asm
              TCLKCONbits   0x000f52       data     extern E:\MPASM_MPLINK_PIC18_LT_Branch_3_42\pic18-lt\cxx-framework\src\traditional\proc\p18f44j11.asm
                    TMR0H   0x000fd7       data     extern E:\MPASM_MPLINK_PIC18_LT_Branch_3_42\pic18-lt\cxx-framework\src\traditional\proc\p18f44j11.asm
                    TMR0L   0x000fd6       data     extern E:\MPASM_MPLINK_PIC18_LT_Branch_3_42\pic18-lt\cxx-framework\src\traditional\proc\p18f44j11.asm
                    TMR1H   0x000fcf       data     extern E:\MPASM_MPLINK_PIC18_LT_Branch_3_42\pic18-lt\cxx-framework\src\traditional\proc\p18f44j11.asm
                    TMR1L   0x000fce       data     extern E:\MPASM_MPLINK_PIC18_LT_Branch_3_42\pic18-lt\cxx-framework\src\traditional\proc\p18f44j11.asm
                     TMR2   0x000fcc       data     extern E:\MPASM_MPLINK_PIC18_LT_Branch_3_42\pic18-lt\cxx-framework\src\traditional\proc\p18f44j11.asm
                    TMR3H   0x000f7b       data     extern E:\MPASM_MPLINK_PIC18_LT_Branch_3_42\pic18-lt\cxx-framework\src\traditional\proc\p18f44j11.asm
                    TMR3L   0x000f7a       data     extern E:\MPASM_MPLINK_PIC18_LT_Branch_3_42\pic18-lt\cxx-framework\src\traditional\proc\p18f44j11.asm
                     TMR4   0x000f78       data     extern E:\MPASM_MPLINK_PIC18_LT_Branch_3_42\pic18-lt\cxx-framework\src\traditional\proc\p18f44j11.asm
                      TOS   0x000ffd       data     extern E:\MPASM_MPLINK_PIC18_LT_Branch_3_42\pic18-lt\cxx-framework\src\traditional\proc\p18f44j11.asm
                     TOSH   0x000ffe       data     extern E:\MPASM_MPLINK_PIC18_LT_Branch_3_42\pic18-lt\cxx-framework\src\traditional\proc\p18f44j11.asm
                     TOSL   0x000ffd       data     extern E:\MPASM_MPLINK_PIC18_LT_Branch_3_42\pic18-lt\cxx-framework\src\traditional\proc\p18f44j11.asm
                     TOSU   0x000fff       data     extern E:\MPASM_MPLINK_PIC18_LT_Branch_3_42\pic18-lt\cxx-framework\src\traditional\proc\p18f44j11.asm
                    TRISA   0x000f92       data     extern E:\MPASM_MPLINK_PIC18_LT_Branch_3_42\pic18-lt\cxx-framework\src\traditional\proc\p18f44j11.asm
                TRISAbits   0x000f92       data     extern E:\MPASM_MPLINK_PIC18_LT_Branch_3_42\pic18-lt\cxx-framework\src\traditional\proc\p18f44j11.asm
                    TRISB   0x000f93       data     extern E:\MPASM_MPLINK_PIC18_LT_Branch_3_42\pic18-lt\cxx-framework\src\traditional\proc\p18f44j11.asm
                TRISBbits   0x000f93       data     extern E:\MPASM_MPLINK_PIC18_LT_Branch_3_42\pic18-lt\cxx-framework\src\traditional\proc\p18f44j11.asm
                    TRISC   0x000f94       data     extern E:\MPASM_MPLINK_PIC18_LT_Branch_3_42\pic18-lt\cxx-framework\src\traditional\proc\p18f44j11.asm
                TRISCbits   0x000f94       data     extern E:\MPASM_MPLINK_PIC18_LT_Branch_3_42\pic18-lt\cxx-framework\src\traditional\proc\p18f44j11.asm
                    TRISD   0x000f95       data     extern E:\MPASM_MPLINK_PIC18_LT_Branch_3_42\pic18-lt\cxx-framework\src\traditional\proc\p18f44j11.asm
                TRISDbits   0x000f95       data     extern E:\MPASM_MPLINK_PIC18_LT_Branch_3_42\pic18-lt\cxx-framework\src\traditional\proc\p18f44j11.asm
                    TRISE   0x000f96       data     extern E:\MPASM_MPLINK_PIC18_LT_Branch_3_42\pic18-lt\cxx-framework\src\traditional\proc\p18f44j11.asm
                TRISEbits   0x000f96       data     extern E:\MPASM_MPLINK_PIC18_LT_Branch_3_42\pic18-lt\cxx-framework\src\traditional\proc\p18f44j11.asm
                  TXADDRH   0x000f6a       data     extern E:\MPASM_MPLINK_PIC18_LT_Branch_3_42\pic18-lt\cxx-framework\src\traditional\proc\p18f44j11.asm
              TXADDRHbits   0x000f6a       data     extern E:\MPASM_MPLINK_PIC18_LT_Branch_3_42\pic18-lt\cxx-framework\src\traditional\proc\p18f44j11.asm
                  TXADDRL   0x000f6b       data     extern E:\MPASM_MPLINK_PIC18_LT_Branch_3_42\pic18-lt\cxx-framework\src\traditional\proc\p18f44j11.asm
                    TXREG   0x000fae       data     extern E:\MPASM_MPLINK_PIC18_LT_Branch_3_42\pic18-lt\cxx-framework\src\traditional\proc\p18f44j11.asm
                   TXREG1   0x000fae       data     extern E:\MPASM_MPLINK_PIC18_LT_Branch_3_42\pic18-lt\cxx-framework\src\traditional\proc\p18f44j11.asm
                   TXREG2   0x000fa9       data     extern E:\MPASM_MPLINK_PIC18_LT_Branch_3_42\pic18-lt\cxx-framework\src\traditional\proc\p18f44j11.asm
                    TXSTA   0x000fad       data     extern E:\MPASM_MPLINK_PIC18_LT_Branch_3_42\pic18-lt\cxx-framework\src\traditional\proc\p18f44j11.asm
                   TXSTA1   0x000fad       data     extern E:\MPASM_MPLINK_PIC18_LT_Branch_3_42\pic18-lt\cxx-framework\src\traditional\proc\p18f44j11.asm
               TXSTA1bits   0x000fad       data     extern E:\MPASM_MPLINK_PIC18_LT_Branch_3_42\pic18-lt\cxx-framework\src\traditional\proc\p18f44j11.asm
                   TXSTA2   0x000fa8       data     extern E:\MPASM_MPLINK_PIC18_LT_Branch_3_42\pic18-lt\cxx-framework\src\traditional\proc\p18f44j11.asm
               TXSTA2bits   0x000fa8       data     extern E:\MPASM_MPLINK_PIC18_LT_Branch_3_42\pic18-lt\cxx-framework\src\traditional\proc\p18f44j11.asm
                TXSTAbits   0x000fad       data     extern E:\MPASM_MPLINK_PIC18_LT_Branch_3_42\pic18-lt\cxx-framework\src\traditional\proc\p18f44j11.asm
                   WDTCON   0x000fc0       data     extern E:\MPASM_MPLINK_PIC18_LT_Branch_3_42\pic18-lt\cxx-framework\src\traditional\proc\p18f44j11.asm
               WDTCONbits   0x000fc0       data     extern E:\MPASM_MPLINK_PIC18_LT_Branch_3_42\pic18-lt\cxx-framework\src\traditional\proc\p18f44j11.asm
                     WREG   0x000fe8       data     extern E:\MPASM_MPLINK_PIC18_LT_Branch_3_42\pic18-lt\cxx-framework\src\traditional\proc\p18f44j11.asm
                 __AARGB0   0x000009       data     extern E:\MPASM_MPLINK_PIC18_LT_Branch_3_42\pic18-lt\cxx-framework\src\traditional\math\aarg.asm
                 __AARGB1   0x000008       data     extern E:\MPASM_MPLINK_PIC18_LT_Branch_3_42\pic18-lt\cxx-framework\src\traditional\math\aarg.asm
                 __AARGB2   0x000007       data     extern E:\MPASM_MPLINK_PIC18_LT_Branch_3_42\pic18-lt\cxx-framework\src\traditional\math\aarg.asm
                 __AARGB3   0x000006       data     extern E:\MPASM_MPLINK_PIC18_LT_Branch_3_42\pic18-lt\cxx-framework\src\traditional\math\aarg.asm
                 __AARGB4   0x000005       data     extern E:\MPASM_MPLINK_PIC18_LT_Branch_3_42\pic18-lt\cxx-framework\src\traditional\math\aarg.asm
                 __AARGB5   0x000004       data     extern E:\MPASM_MPLINK_PIC18_LT_Branch_3_42\pic18-lt\cxx-framework\src\traditional\math\aarg.asm
                 __AARGB6   0x000003       data     extern E:\MPASM_MPLINK_PIC18_LT_Branch_3_42\pic18-lt\cxx-framework\src\traditional\math\aarg.asm
                 __AARGB7   0x000002       data     extern E:\MPASM_MPLINK_PIC18_LT_Branch_3_42\pic18-lt\cxx-framework\src\traditional\math\aarg.asm
                   __AEXP   0x00000a       data     extern E:\MPASM_MPLINK_PIC18_LT_Branch_3_42\pic18-lt\cxx-framework\src\traditional\math\aarg.asm
                 __BARGB0   0x00000e       data     extern E:\MPASM_MPLINK_PIC18_LT_Branch_3_42\pic18-lt\cxx-framework\src\traditional\math\barg.asm
                 __BARGB1   0x00000d       data     extern E:\MPASM_MPLINK_PIC18_LT_Branch_3_42\pic18-lt\cxx-framework\src\traditional\math\barg.asm
                 __BARGB2   0x00000c       data     extern E:\MPASM_MPLINK_PIC18_LT_Branch_3_42\pic18-lt\cxx-framework\src\traditional\math\barg.asm
                 __BARGB3   0x00000b       data     extern E:\MPASM_MPLINK_PIC18_LT_Branch_3_42\pic18-lt\cxx-framework\src\traditional\math\barg.asm
                   __BEXP   0x00000f       data     extern E:\MPASM_MPLINK_PIC18_LT_Branch_3_42\pic18-lt\cxx-framework\src\traditional\math\barg.asm
                __FPFLAGS   0x000001       data     extern E:\MPASM_MPLINK_PIC18_LT_Branch_3_42\pic18-lt\cxx-framework\src\traditional\math\cmath18.asm
            __FPFLAGSbits   0x000001       data     extern E:\MPASM_MPLINK_PIC18_LT_Branch_3_42\pic18-lt\cxx-framework\src\traditional\math\cmath18.asm
                  __REMB0   0x000005       data     extern E:\MPASM_MPLINK_PIC18_LT_Branch_3_42\pic18-lt\cxx-framework\src\traditional\math\aarg.asm
                  __REMB1   0x000004       data     extern E:\MPASM_MPLINK_PIC18_LT_Branch_3_42\pic18-lt\cxx-framework\src\traditional\math\aarg.asm
                  __REMB2   0x000003       data     extern E:\MPASM_MPLINK_PIC18_LT_Branch_3_42\pic18-lt\cxx-framework\src\traditional\math\aarg.asm
                  __REMB3   0x000002       data     extern E:\MPASM_MPLINK_PIC18_LT_Branch_3_42\pic18-lt\cxx-framework\src\traditional\math\aarg.asm
                   __TEMP   0x000013       data     extern E:\MPASM_MPLINK_PIC18_LT_Branch_3_42\pic18-lt\cxx-framework\src\traditional\math\temparg.asm
                 __TEMPB0   0x000013       data     extern E:\MPASM_MPLINK_PIC18_LT_Branch_3_42\pic18-lt\cxx-framework\src\traditional\math\temparg.asm
                 __TEMPB1   0x000012       data     extern E:\MPASM_MPLINK_PIC18_LT_Branch_3_42\pic18-lt\cxx-framework\src\traditional\math\temparg.asm
                 __TEMPB2   0x000011       data     extern E:\MPASM_MPLINK_PIC18_LT_Branch_3_42\pic18-lt\cxx-framework\src\traditional\math\temparg.asm
                 __TEMPB3   0x000010       data     extern E:\MPASM_MPLINK_PIC18_LT_Branch_3_42\pic18-lt\cxx-framework\src\traditional\math\temparg.asm
                  __tmp_0   0x000014       data     static E:\MPASM_MPLINK_PIC18_LT_Branch_3_42\pic18-lt\cxx-framework\src\pmc_common\rtcc\RtccWriteAlrmTime.c
                  __tmp_0   0x000014       data     static E:\MPASM_MPLINK_PIC18_LT_Branch_3_42\pic18-lt\cxx-framework\src\pmc_common\rtcc\RtccWriteAlrmTimeDate.c
                  __tmp_0   0x000014       data     static E:\MPASM_MPLINK_PIC18_LT_Branch_3_42\pic18-lt\cxx-framework\src\pmc_common\rtcc\RtccWriteTimeDate.c
                  __tmp_0   0x000014       data     static E:\MPASM_MPLINK_PIC18_LT_Branch_3_42\pic18-lt\cxx-framework\src\pmc_common\rtcc\RtccReadTimeDate.c
                  __tmp_0   0x000014       data     static M:\projet_jc\Projets\BlueCom\BlueCom_Electronic_Board_Software\BlueCom\Sources\BC_pwm.c
                  __tmp_0   0x000014       data     static M:\projet_jc\Projets\BlueCom\BlueCom_Electronic_Board_Software\BlueCom\Sources\BC_rtcc.c
                  __tmp_0   0x000014       data     static M:\projet_jc\Projets\BlueCom\BlueCom_Electronic_Board_Software\BlueCom\Sources\tick.c
                  __tmp_0   0x000014       data     static M:\projet_jc\Projets\BlueCom\BlueCom_Electronic_Board_Software\BlueCom\Sources\UARTIntC.c
                  __tmp_0   0x000014       data     static M:\projet_jc\Projets\BlueCom\BlueCom_Electronic_Board_Software\BlueCom\Sources\BlueCom.c
                curr_byte   0x000e03       data     static E:\MPASM_MPLINK_PIC18_LT_Branch_3_42\pic18-lt\cxx-framework\src\traditional\startup\c018i.c
               curr_entry   0x000e05       data     static E:\MPASM_MPLINK_PIC18_LT_Branch_3_42\pic18-lt\cxx-framework\src\traditional\startup\c018i.c
                 data_ptr   0x000e07       data     static E:\MPASM_MPLINK_PIC18_LT_Branch_3_42\pic18-lt\cxx-framework\src\traditional\startup\c018i.c
                     prom   0x000e00       data     static E:\MPASM_MPLINK_PIC18_LT_Branch_3_42\pic18-lt\cxx-framework\src\traditional\startup\c018i.c
            uBCM_RxBuffer   0x000060       data     extern M:\projet_jc\Projets\BlueCom\BlueCom_Electronic_Board_Software\BlueCom\Sources\BlueCom.c
                uRxBuffer   0x00009e       data     static M:\projet_jc\Projets\BlueCom\BlueCom_Electronic_Board_Software\BlueCom\Sources\BlueCom.c
                   uRxIdx   0x0000ab       data     static M:\projet_jc\Projets\BlueCom\BlueCom_Electronic_Board_Software\BlueCom\Sources\BlueCom.c
     vUARTIntRxBufDataCnt   0x0000d8       data     extern M:\projet_jc\Projets\BlueCom\BlueCom_Electronic_Board_Software\BlueCom\Sources\UARTIntC.c
       vUARTIntRxBufRdPtr   0x0000da       data     extern M:\projet_jc\Projets\BlueCom\BlueCom_Electronic_Board_Software\BlueCom\Sources\UARTIntC.c
       vUARTIntRxBufWrPtr   0x0000d9       data     extern M:\projet_jc\Projets\BlueCom\BlueCom_Electronic_Board_Software\BlueCom\Sources\UARTIntC.c
         vUARTIntRxBuffer   0x0000c4       data     extern M:\projet_jc\Projets\BlueCom\BlueCom_Electronic_Board_Software\BlueCom\Sources\UARTIntC.c
           vUARTIntStatus   0x0000ac       data     extern M:\projet_jc\Projets\BlueCom\BlueCom_Electronic_Board_Software\BlueCom\Sources\UARTIntC.c
     vUARTIntTxBufDataCnt   0x0000c1       data     extern M:\projet_jc\Projets\BlueCom\BlueCom_Electronic_Board_Software\BlueCom\Sources\UARTIntC.c
       vUARTIntTxBufRdPtr   0x0000c3       data     extern M:\projet_jc\Projets\BlueCom\BlueCom_Electronic_Board_Software\BlueCom\Sources\UARTIntC.c
       vUARTIntTxBufWrPtr   0x0000c2       data     extern M:\projet_jc\Projets\BlueCom\BlueCom_Electronic_Board_Software\BlueCom\Sources\UARTIntC.c
         vUARTIntTxBuffer   0x0000ad       data     extern M:\projet_jc\Projets\BlueCom\BlueCom_Electronic_Board_Software\BlueCom\Sources\UARTIntC.c
              wTICK_Table   0x0000f7       data     extern M:\projet_jc\Projets\BlueCom\BlueCom_Electronic_Board_Software\BlueCom\Sources\tick.c



                              Symbols - Sorted by Address
                     Name    Address   Location    Storage File                     
                ---------  ---------  ---------  --------- ---------                
                   _entry   0x000000    program     extern E:\MPASM_MPLINK_PIC18_LT_Branch_3_42\pic18-lt\cxx-framework\src\traditional\startup\c018i.c
       ___return_lbl00000   0x000004    program     static                          
                   __init   0x000006    program     extern E:\MPASM_MPLINK_PIC18_LT_Branch_3_42\pic18-lt\cxx-framework\src\traditional\stdclib\__init.c
      InterruptVectorHigh   0x000008    program     extern M:\projet_jc\Projets\BlueCom\BlueCom_Electronic_Board_Software\BlueCom\Sources\Interrupts.c
       ___return_lbl00000   0x00000c    program     static                          
       InterruptVectorLow   0x000018    program     extern M:\projet_jc\Projets\BlueCom\BlueCom_Electronic_Board_Software\BlueCom\Sources\Interrupts.c
       ___return_lbl00001   0x00001c    program     static                          
     InterruptServiceHigh   0x00001e    program     extern M:\projet_jc\Projets\BlueCom\BlueCom_Electronic_Board_Software\BlueCom\Sources\Interrupts.c
      InterruptServiceLow   0x0001aa    program     extern M:\projet_jc\Projets\BlueCom\BlueCom_Electronic_Board_Software\BlueCom\Sources\Interrupts.c
         RTCC_setTimeDate   0x000272    program     extern M:\projet_jc\Projets\BlueCom\BlueCom_Electronic_Board_Software\BlueCom\Sources\BC_rtcc.c
        RTCC_readTimeDate   0x00033a    program     extern M:\projet_jc\Projets\BlueCom\BlueCom_Electronic_Board_Software\BlueCom\Sources\BC_rtcc.c
        RTCC_setAlarmTime   0x000412    program     extern M:\projet_jc\Projets\BlueCom\BlueCom_Electronic_Board_Software\BlueCom\Sources\BC_rtcc.c
       RTCC_readAlarmTime   0x000476    program     extern M:\projet_jc\Projets\BlueCom\BlueCom_Electronic_Board_Software\BlueCom\Sources\BC_rtcc.c
        RTCC_setAlarmDate   0x000546    program     extern M:\projet_jc\Projets\BlueCom\BlueCom_Electronic_Board_Software\BlueCom\Sources\BC_rtcc.c
       RTCC_readAlarmDate   0x00060a    program     extern M:\projet_jc\Projets\BlueCom\BlueCom_Electronic_Board_Software\BlueCom\Sources\BC_rtcc.c
     RTCC_setAlarmDayTime   0x0006d2    program     extern M:\projet_jc\Projets\BlueCom\BlueCom_Electronic_Board_Software\BlueCom\Sources\BC_rtcc.c
    RTCC_readAlarmDayTime   0x00091e    program     extern M:\projet_jc\Projets\BlueCom\BlueCom_Electronic_Board_Software\BlueCom\Sources\BC_rtcc.c
    RTCC_initAlarmDayTime   0x000a78    program     extern M:\projet_jc\Projets\BlueCom\BlueCom_Electronic_Board_Software\BlueCom\Sources\BC_rtcc.c
   RTCC_checkAlarmDayTime   0x000b5c    program     extern M:\projet_jc\Projets\BlueCom\BlueCom_Electronic_Board_Software\BlueCom\Sources\BC_rtcc.c
    RTCC_SetAlarmRptCount   0x000f3e    program     extern M:\projet_jc\Projets\BlueCom\BlueCom_Electronic_Board_Software\BlueCom\Sources\BC_rtcc.c
           RTCC_configure   0x000f60    program     extern M:\projet_jc\Projets\BlueCom\BlueCom_Electronic_Board_Software\BlueCom\Sources\BC_rtcc.c
                  bcd2dec   0x001014    program     extern M:\projet_jc\Projets\BlueCom\BlueCom_Electronic_Board_Software\BlueCom\Sources\BC_rtcc.c
          BCM_ReceiveUART   0x0010f2    program     extern M:\projet_jc\Projets\BlueCom\BlueCom_Electronic_Board_Software\BlueCom\Sources\BlueCom.c
               BCM_Decode   0x001220    program     extern M:\projet_jc\Projets\BlueCom\BlueCom_Electronic_Board_Software\BlueCom\Sources\BlueCom.c
         BCM_TransmitUART   0x00149e    program     extern M:\projet_jc\Projets\BlueCom\BlueCom_Electronic_Board_Software\BlueCom\Sources\BlueCom.c
             BCM_Transmit   0x001516    program     extern M:\projet_jc\Projets\BlueCom\BlueCom_Electronic_Board_Software\BlueCom\Sources\BlueCom.c
               BCM_Encode   0x001650    program     extern M:\projet_jc\Projets\BlueCom\BlueCom_Electronic_Board_Software\BlueCom\Sources\BlueCom.c
        RtccWriteTimeDate   0x0017ec    program     extern E:\MPASM_MPLINK_PIC18_LT_Branch_3_42\pic18-lt\cxx-framework\src\pmc_common\rtcc\RtccWriteTimeDate.c
              UARTIntInit   0x001a54    program     extern M:\projet_jc\Projets\BlueCom\BlueCom_Electronic_Board_Software\BlueCom\Sources\UARTIntC.c
           UARTIntPutChar   0x001a90    program     extern M:\projet_jc\Projets\BlueCom\BlueCom_Electronic_Board_Software\BlueCom\Sources\UARTIntC.c
UARTIntGetTxBufferEmptySpace   0x001ada    program     extern M:\projet_jc\Projets\BlueCom\BlueCom_Electronic_Board_Software\BlueCom\Sources\UARTIntC.c
           UARTIntGetChar   0x001af2    program     extern M:\projet_jc\Projets\BlueCom\BlueCom_Electronic_Board_Software\BlueCom\Sources\UARTIntC.c
UARTIntGetRxBufferDataSize   0x001b4a    program     extern M:\projet_jc\Projets\BlueCom\BlueCom_Electronic_Board_Software\BlueCom\Sources\UARTIntC.c
               UARTIntISR   0x001b52    program     extern M:\projet_jc\Projets\BlueCom\BlueCom_Electronic_Board_Software\BlueCom\Sources\UARTIntC.c
         UART1_put_chaine   0x001c1e    program     extern M:\projet_jc\Projets\BlueCom\BlueCom_Electronic_Board_Software\BlueCom\Sources\UARTIntC.c
                TICK_Init   0x001c88    program     extern M:\projet_jc\Projets\BlueCom\BlueCom_Electronic_Board_Software\BlueCom\Sources\tick.c
                  TICK_IT   0x001cfa    program     extern M:\projet_jc\Projets\BlueCom\BlueCom_Electronic_Board_Software\BlueCom\Sources\tick.c
                 TICK_Set   0x001d5a    program     extern M:\projet_jc\Projets\BlueCom\BlueCom_Electronic_Board_Software\BlueCom\Sources\tick.c
                 TICK_Get   0x001daa    program     extern M:\projet_jc\Projets\BlueCom\BlueCom_Electronic_Board_Software\BlueCom\Sources\tick.c
           TICK_Is_Elapse   0x001e08    program     extern M:\projet_jc\Projets\BlueCom\BlueCom_Electronic_Board_Software\BlueCom\Sources\tick.c
               TICK_Close   0x001e60    program     extern M:\projet_jc\Projets\BlueCom\BlueCom_Electronic_Board_Software\BlueCom\Sources\tick.c
    RtccWriteAlrmTimeDate   0x001e9a    program     extern E:\MPASM_MPLINK_PIC18_LT_Branch_3_42\pic18-lt\cxx-framework\src\pmc_common\rtcc\RtccWriteAlrmTimeDate.c
                 PWM_Init   0x002086    program     extern M:\projet_jc\Projets\BlueCom\BlueCom_Electronic_Board_Software\BlueCom\Sources\BC_pwm.c
            PWM_Generator   0x0020c2    program     extern M:\projet_jc\Projets\BlueCom\BlueCom_Electronic_Board_Software\BlueCom\Sources\BC_pwm.c
             PWM_Setvalue   0x002142    program     extern M:\projet_jc\Projets\BlueCom\BlueCom_Electronic_Board_Software\BlueCom\Sources\BC_pwm.c
            PWM_Readvalue   0x0021b4    program     extern M:\projet_jc\Projets\BlueCom\BlueCom_Electronic_Board_Software\BlueCom\Sources\BC_pwm.c
         RtccReadTimeDate   0x002204    program     extern E:\MPASM_MPLINK_PIC18_LT_Branch_3_42\pic18-lt\cxx-framework\src\pmc_common\rtcc\RtccReadTimeDate.c
        RtccWriteAlrmTime   0x002352    program     extern E:\MPASM_MPLINK_PIC18_LT_Branch_3_42\pic18-lt\cxx-framework\src\pmc_common\rtcc\RtccWriteAlrmTime.c
                     main   0x002498    program     extern M:\projet_jc\Projets\BlueCom\BlueCom_Electronic_Board_Software\BlueCom\Sources\main.c
                 ADC_Init   0x00256e    program     extern M:\projet_jc\Projets\BlueCom\BlueCom_Electronic_Board_Software\BlueCom\Sources\main.c
              ADC_Convert   0x00258c    program     extern M:\projet_jc\Projets\BlueCom\BlueCom_Electronic_Board_Software\BlueCom\Sources\main.c
                _do_cinit   0x002598    program     extern E:\MPASM_MPLINK_PIC18_LT_Branch_3_42\pic18-lt\cxx-framework\src\traditional\startup\c018i.c
                     test   0x0025b2    program     static                          
                copy_loop   0x00260a    program     static                          
            copy_one_byte   0x002610    program     static                          
             done_copying   0x00261e    program     static                          
       ___return_lbl00002   0x002634    program     static                          
                     done   0x002634    program     static                          
         RtccReadAlrmTime   0x002636    program     extern E:\MPASM_MPLINK_PIC18_LT_Branch_3_42\pic18-lt\cxx-framework\src\pmc_common\rtcc\RtccReadAlrmTime.c
          RtccSetAlarmRpt   0x0026d0    program     extern E:\MPASM_MPLINK_PIC18_LT_Branch_3_42\pic18-lt\cxx-framework\src\pmc_common\rtcc\RtccSetAlarmRpt.c
                 FXM1616S   0x00272e    program     extern E:\MPASM_MPLINK_PIC18_LT_Branch_3_42\pic18-lt\cxx-framework\src\traditional\math\fxm1616s.asm
               TSIGN1616A   0x00277a    program     static E:\MPASM_MPLINK_PIC18_LT_Branch_3_42\pic18-lt\cxx-framework\src\traditional\math\fxm1616s.asm
     RtccSetAlarmRptCount   0x002788    program     extern E:\MPASM_MPLINK_PIC18_LT_Branch_3_42\pic18-lt\cxx-framework\src\pmc_common\rtcc\RtccSetAlarmRptCount.c
                 RtccWrOn   0x0027d8    program     extern E:\MPASM_MPLINK_PIC18_LT_Branch_3_42\pic18-lt\cxx-framework\src\pmc_common\rtcc\RtccWrOn.c
       ___return_lbl00000   0x0027fc    program     static                          
            __zero_memory   0x00280c    program     extern E:\MPASM_MPLINK_PIC18_LT_Branch_3_42\pic18-lt\cxx-framework\src\traditional\proc\p18f44j11.asm
                   loop_h   0x00281a    program     static E:\MPASM_MPLINK_PIC18_LT_Branch_3_42\pic18-lt\cxx-framework\src\traditional\proc\p18f44j11.asm
               zero_block   0x00281a    program     static E:\MPASM_MPLINK_PIC18_LT_Branch_3_42\pic18-lt\cxx-framework\src\traditional\proc\p18f44j11.asm
                compare_l   0x002822    program     static E:\MPASM_MPLINK_PIC18_LT_Branch_3_42\pic18-lt\cxx-framework\src\traditional\proc\p18f44j11.asm
                   loop_l   0x002824    program     static E:\MPASM_MPLINK_PIC18_LT_Branch_3_42\pic18-lt\cxx-framework\src\traditional\proc\p18f44j11.asm
                 _startup   0x00282c    program     extern E:\MPASM_MPLINK_PIC18_LT_Branch_3_42\pic18-lt\cxx-framework\src\traditional\startup\c018i.c
                     loop   0x00283c    program     static                          
       ___return_lbl00001   0x002846    program     static                          
            RtccInitClock   0x002848    program     extern E:\MPASM_MPLINK_PIC18_LT_Branch_3_42\pic18-lt\cxx-framework\src\pmc_common\rtcc\RTCCInitClock.c
               __config_0   0x003ff8    program     static M:\projet_jc\Projets\BlueCom\BlueCom_Electronic_Board_Software\BlueCom\Sources\main.c
               __config_1   0x003ff9    program     static M:\projet_jc\Projets\BlueCom\BlueCom_Electronic_Board_Software\BlueCom\Sources\main.c
               __config_2   0x003ffa    program     static M:\projet_jc\Projets\BlueCom\BlueCom_Electronic_Board_Software\BlueCom\Sources\main.c
               __config_3   0x003ffb    program     static M:\projet_jc\Projets\BlueCom\BlueCom_Electronic_Board_Software\BlueCom\Sources\main.c
               __config_4   0x003ffc    program     static M:\projet_jc\Projets\BlueCom\BlueCom_Electronic_Board_Software\BlueCom\Sources\main.c
               __config_5   0x003ffe    program     static M:\projet_jc\Projets\BlueCom\BlueCom_Electronic_Board_Software\BlueCom\Sources\main.c
               __config_6   0x003fff    program     static M:\projet_jc\Projets\BlueCom\BlueCom_Electronic_Board_Software\BlueCom\Sources\main.c
                     SIGN   0x000000       data     extern E:\MPASM_MPLINK_PIC18_LT_Branch_3_42\pic18-lt\cxx-framework\src\traditional\math\cmath18.asm
                __FPFLAGS   0x000001       data     extern E:\MPASM_MPLINK_PIC18_LT_Branch_3_42\pic18-lt\cxx-framework\src\traditional\math\cmath18.asm
            __FPFLAGSbits   0x000001       data     extern E:\MPASM_MPLINK_PIC18_LT_Branch_3_42\pic18-lt\cxx-framework\src\traditional\math\cmath18.asm
                  __REMB3   0x000002       data     extern E:\MPASM_MPLINK_PIC18_LT_Branch_3_42\pic18-lt\cxx-framework\src\traditional\math\aarg.asm
                 __AARGB7   0x000002       data     extern E:\MPASM_MPLINK_PIC18_LT_Branch_3_42\pic18-lt\cxx-framework\src\traditional\math\aarg.asm
                  __REMB2   0x000003       data     extern E:\MPASM_MPLINK_PIC18_LT_Branch_3_42\pic18-lt\cxx-framework\src\traditional\math\aarg.asm
                 __AARGB6   0x000003       data     extern E:\MPASM_MPLINK_PIC18_LT_Branch_3_42\pic18-lt\cxx-framework\src\traditional\math\aarg.asm
                  __REMB1   0x000004       data     extern E:\MPASM_MPLINK_PIC18_LT_Branch_3_42\pic18-lt\cxx-framework\src\traditional\math\aarg.asm
                 __AARGB5   0x000004       data     extern E:\MPASM_MPLINK_PIC18_LT_Branch_3_42\pic18-lt\cxx-framework\src\traditional\math\aarg.asm
                  __REMB0   0x000005       data     extern E:\MPASM_MPLINK_PIC18_LT_Branch_3_42\pic18-lt\cxx-framework\src\traditional\math\aarg.asm
                 __AARGB4   0x000005       data     extern E:\MPASM_MPLINK_PIC18_LT_Branch_3_42\pic18-lt\cxx-framework\src\traditional\math\aarg.asm
                 __AARGB3   0x000006       data     extern E:\MPASM_MPLINK_PIC18_LT_Branch_3_42\pic18-lt\cxx-framework\src\traditional\math\aarg.asm
                 __AARGB2   0x000007       data     extern E:\MPASM_MPLINK_PIC18_LT_Branch_3_42\pic18-lt\cxx-framework\src\traditional\math\aarg.asm
                 __AARGB1   0x000008       data     extern E:\MPASM_MPLINK_PIC18_LT_Branch_3_42\pic18-lt\cxx-framework\src\traditional\math\aarg.asm
                 __AARGB0   0x000009       data     extern E:\MPASM_MPLINK_PIC18_LT_Branch_3_42\pic18-lt\cxx-framework\src\traditional\math\aarg.asm
                   __AEXP   0x00000a       data     extern E:\MPASM_MPLINK_PIC18_LT_Branch_3_42\pic18-lt\cxx-framework\src\traditional\math\aarg.asm
                 __BARGB3   0x00000b       data     extern E:\MPASM_MPLINK_PIC18_LT_Branch_3_42\pic18-lt\cxx-framework\src\traditional\math\barg.asm
                 __BARGB2   0x00000c       data     extern E:\MPASM_MPLINK_PIC18_LT_Branch_3_42\pic18-lt\cxx-framework\src\traditional\math\barg.asm
                 __BARGB1   0x00000d       data     extern E:\MPASM_MPLINK_PIC18_LT_Branch_3_42\pic18-lt\cxx-framework\src\traditional\math\barg.asm
                 __BARGB0   0x00000e       data     extern E:\MPASM_MPLINK_PIC18_LT_Branch_3_42\pic18-lt\cxx-framework\src\traditional\math\barg.asm
                   __BEXP   0x00000f       data     extern E:\MPASM_MPLINK_PIC18_LT_Branch_3_42\pic18-lt\cxx-framework\src\traditional\math\barg.asm
                 __TEMPB3   0x000010       data     extern E:\MPASM_MPLINK_PIC18_LT_Branch_3_42\pic18-lt\cxx-framework\src\traditional\math\temparg.asm
                 __TEMPB2   0x000011       data     extern E:\MPASM_MPLINK_PIC18_LT_Branch_3_42\pic18-lt\cxx-framework\src\traditional\math\temparg.asm
                 __TEMPB1   0x000012       data     extern E:\MPASM_MPLINK_PIC18_LT_Branch_3_42\pic18-lt\cxx-framework\src\traditional\math\temparg.asm
                   __TEMP   0x000013       data     extern E:\MPASM_MPLINK_PIC18_LT_Branch_3_42\pic18-lt\cxx-framework\src\traditional\math\temparg.asm
                 __TEMPB0   0x000013       data     extern E:\MPASM_MPLINK_PIC18_LT_Branch_3_42\pic18-lt\cxx-framework\src\traditional\math\temparg.asm
                  __tmp_0   0x000014       data     static M:\projet_jc\Projets\BlueCom\BlueCom_Electronic_Board_Software\BlueCom\Sources\BlueCom.c
                  __tmp_0   0x000014       data     static E:\MPASM_MPLINK_PIC18_LT_Branch_3_42\pic18-lt\cxx-framework\src\pmc_common\rtcc\RtccWriteAlrmTime.c
                  __tmp_0   0x000014       data     static E:\MPASM_MPLINK_PIC18_LT_Branch_3_42\pic18-lt\cxx-framework\src\pmc_common\rtcc\RtccWriteAlrmTimeDate.c
                  __tmp_0   0x000014       data     static E:\MPASM_MPLINK_PIC18_LT_Branch_3_42\pic18-lt\cxx-framework\src\pmc_common\rtcc\RtccWriteTimeDate.c
                  __tmp_0   0x000014       data     static M:\projet_jc\Projets\BlueCom\BlueCom_Electronic_Board_Software\BlueCom\Sources\UARTIntC.c
                  __tmp_0   0x000014       data     static E:\MPASM_MPLINK_PIC18_LT_Branch_3_42\pic18-lt\cxx-framework\src\pmc_common\rtcc\RtccReadTimeDate.c
                  __tmp_0   0x000014       data     static M:\projet_jc\Projets\BlueCom\BlueCom_Electronic_Board_Software\BlueCom\Sources\BC_pwm.c
                  __tmp_0   0x000014       data     static M:\projet_jc\Projets\BlueCom\BlueCom_Electronic_Board_Software\BlueCom\Sources\tick.c
                  __tmp_0   0x000014       data     static M:\projet_jc\Projets\BlueCom\BlueCom_Electronic_Board_Software\BlueCom\Sources\BC_rtcc.c
            uBCM_RxBuffer   0x000060       data     extern M:\projet_jc\Projets\BlueCom\BlueCom_Electronic_Board_Software\BlueCom\Sources\BlueCom.c
           BlueCom_Struct   0x00006d       data     extern M:\projet_jc\Projets\BlueCom\BlueCom_Electronic_Board_Software\BlueCom\Sources\BlueCom.c
          BlueCom_Data_TX   0x000074       data     extern M:\projet_jc\Projets\BlueCom\BlueCom_Electronic_Board_Software\BlueCom\Sources\BlueCom.c
          BlueCom_Data_RX   0x00007d       data     extern M:\projet_jc\Projets\BlueCom\BlueCom_Electronic_Board_Software\BlueCom\Sources\BlueCom.c
         RtccAlarmOutput0   0x000086       data     extern M:\projet_jc\Projets\BlueCom\BlueCom_Electronic_Board_Software\BlueCom\Sources\BlueCom.c
       RtccAlarmOutputRGB   0x000090       data     extern M:\projet_jc\Projets\BlueCom\BlueCom_Electronic_Board_Software\BlueCom\Sources\BlueCom.c
        BlueCom_outputRGB   0x00009a       data     extern M:\projet_jc\Projets\BlueCom\BlueCom_Electronic_Board_Software\BlueCom\Sources\BlueCom.c
                uRxBuffer   0x00009e       data     static M:\projet_jc\Projets\BlueCom\BlueCom_Electronic_Board_Software\BlueCom\Sources\BlueCom.c
                   uRxIdx   0x0000ab       data     static M:\projet_jc\Projets\BlueCom\BlueCom_Electronic_Board_Software\BlueCom\Sources\BlueCom.c
           vUARTIntStatus   0x0000ac       data     extern M:\projet_jc\Projets\BlueCom\BlueCom_Electronic_Board_Software\BlueCom\Sources\UARTIntC.c
         vUARTIntTxBuffer   0x0000ad       data     extern M:\projet_jc\Projets\BlueCom\BlueCom_Electronic_Board_Software\BlueCom\Sources\UARTIntC.c
     vUARTIntTxBufDataCnt   0x0000c1       data     extern M:\projet_jc\Projets\BlueCom\BlueCom_Electronic_Board_Software\BlueCom\Sources\UARTIntC.c
       vUARTIntTxBufWrPtr   0x0000c2       data     extern M:\projet_jc\Projets\BlueCom\BlueCom_Electronic_Board_Software\BlueCom\Sources\UARTIntC.c
       vUARTIntTxBufRdPtr   0x0000c3       data     extern M:\projet_jc\Projets\BlueCom\BlueCom_Electronic_Board_Software\BlueCom\Sources\UARTIntC.c
         vUARTIntRxBuffer   0x0000c4       data     extern M:\projet_jc\Projets\BlueCom\BlueCom_Electronic_Board_Software\BlueCom\Sources\UARTIntC.c
     vUARTIntRxBufDataCnt   0x0000d8       data     extern M:\projet_jc\Projets\BlueCom\BlueCom_Electronic_Board_Software\BlueCom\Sources\UARTIntC.c
       vUARTIntRxBufWrPtr   0x0000d9       data     extern M:\projet_jc\Projets\BlueCom\BlueCom_Electronic_Board_Software\BlueCom\Sources\UARTIntC.c
       vUARTIntRxBufRdPtr   0x0000da       data     extern M:\projet_jc\Projets\BlueCom\BlueCom_Electronic_Board_Software\BlueCom\Sources\UARTIntC.c
             RtccTimeDate   0x0000db       data     extern M:\projet_jc\Projets\BlueCom\BlueCom_Electronic_Board_Software\BlueCom\Sources\BC_rtcc.c
         RtccAlrmTimeDate   0x0000e3       data     extern M:\projet_jc\Projets\BlueCom\BlueCom_Electronic_Board_Software\BlueCom\Sources\BC_rtcc.c
       Rtcc_read_TimeDate   0x0000eb       data     extern M:\projet_jc\Projets\BlueCom\BlueCom_Electronic_Board_Software\BlueCom\Sources\BC_rtcc.c
             RtccAlrmTime   0x0000f3       data     extern M:\projet_jc\Projets\BlueCom\BlueCom_Electronic_Board_Software\BlueCom\Sources\BC_rtcc.c
              wTICK_Table   0x0000f7       data     extern M:\projet_jc\Projets\BlueCom\BlueCom_Electronic_Board_Software\BlueCom\Sources\tick.c
                 PWM_Time   0x0000fb       data     static M:\projet_jc\Projets\BlueCom\BlueCom_Electronic_Board_Software\BlueCom\Sources\BC_pwm.c
                     prom   0x000e00       data     static E:\MPASM_MPLINK_PIC18_LT_Branch_3_42\pic18-lt\cxx-framework\src\traditional\startup\c018i.c
                curr_byte   0x000e03       data     static E:\MPASM_MPLINK_PIC18_LT_Branch_3_42\pic18-lt\cxx-framework\src\traditional\startup\c018i.c
               curr_entry   0x000e05       data     static E:\MPASM_MPLINK_PIC18_LT_Branch_3_42\pic18-lt\cxx-framework\src\traditional\startup\c018i.c
                 data_ptr   0x000e07       data     static E:\MPASM_MPLINK_PIC18_LT_Branch_3_42\pic18-lt\cxx-framework\src\traditional\startup\c018i.c
                PWM_Value   0x000e0a       data     extern M:\projet_jc\Projets\BlueCom\BlueCom_Electronic_Board_Software\BlueCom\Sources\BC_pwm.c
               Buffer_PWM   0x000e12       data     static M:\projet_jc\Projets\BlueCom\BlueCom_Electronic_Board_Software\BlueCom\Sources\BC_pwm.c
                    RPOR0   0x000ec6       data     extern E:\MPASM_MPLINK_PIC18_LT_Branch_3_42\pic18-lt\cxx-framework\src\traditional\proc\p18f44j11.asm
                    RPOR1   0x000ec7       data     extern E:\MPASM_MPLINK_PIC18_LT_Branch_3_42\pic18-lt\cxx-framework\src\traditional\proc\p18f44j11.asm
                    RPOR2   0x000ec8       data     extern E:\MPASM_MPLINK_PIC18_LT_Branch_3_42\pic18-lt\cxx-framework\src\traditional\proc\p18f44j11.asm
                    RPOR3   0x000ec9       data     extern E:\MPASM_MPLINK_PIC18_LT_Branch_3_42\pic18-lt\cxx-framework\src\traditional\proc\p18f44j11.asm
                    RPOR4   0x000eca       data     extern E:\MPASM_MPLINK_PIC18_LT_Branch_3_42\pic18-lt\cxx-framework\src\traditional\proc\p18f44j11.asm
                    RPOR5   0x000ecb       data     extern E:\MPASM_MPLINK_PIC18_LT_Branch_3_42\pic18-lt\cxx-framework\src\traditional\proc\p18f44j11.asm
                    RPOR6   0x000ecc       data     extern E:\MPASM_MPLINK_PIC18_LT_Branch_3_42\pic18-lt\cxx-framework\src\traditional\proc\p18f44j11.asm
                    RPOR7   0x000ecd       data     extern E:\MPASM_MPLINK_PIC18_LT_Branch_3_42\pic18-lt\cxx-framework\src\traditional\proc\p18f44j11.asm
                    RPOR8   0x000ece       data     extern E:\MPASM_MPLINK_PIC18_LT_Branch_3_42\pic18-lt\cxx-framework\src\traditional\proc\p18f44j11.asm
                    RPOR9   0x000ecf       data     extern E:\MPASM_MPLINK_PIC18_LT_Branch_3_42\pic18-lt\cxx-framework\src\traditional\proc\p18f44j11.asm
                   RPOR10   0x000ed0       data     extern E:\MPASM_MPLINK_PIC18_LT_Branch_3_42\pic18-lt\cxx-framework\src\traditional\proc\p18f44j11.asm
                   RPOR11   0x000ed1       data     extern E:\MPASM_MPLINK_PIC18_LT_Branch_3_42\pic18-lt\cxx-framework\src\traditional\proc\p18f44j11.asm
                   RPOR12   0x000ed2       data     extern E:\MPASM_MPLINK_PIC18_LT_Branch_3_42\pic18-lt\cxx-framework\src\traditional\proc\p18f44j11.asm
                   RPOR13   0x000ed3       data     extern E:\MPASM_MPLINK_PIC18_LT_Branch_3_42\pic18-lt\cxx-framework\src\traditional\proc\p18f44j11.asm
               RPOR14bits   0x000ed4       data     extern E:\MPASM_MPLINK_PIC18_LT_Branch_3_42\pic18-lt\cxx-framework\src\traditional\proc\p18f44j11.asm
                   RPOR14   0x000ed4       data     extern E:\MPASM_MPLINK_PIC18_LT_Branch_3_42\pic18-lt\cxx-framework\src\traditional\proc\p18f44j11.asm
                   RPOR15   0x000ed5       data     extern E:\MPASM_MPLINK_PIC18_LT_Branch_3_42\pic18-lt\cxx-framework\src\traditional\proc\p18f44j11.asm
               RPOR15bits   0x000ed5       data     extern E:\MPASM_MPLINK_PIC18_LT_Branch_3_42\pic18-lt\cxx-framework\src\traditional\proc\p18f44j11.asm
                   RPOR16   0x000ed6       data     extern E:\MPASM_MPLINK_PIC18_LT_Branch_3_42\pic18-lt\cxx-framework\src\traditional\proc\p18f44j11.asm
               RPOR16bits   0x000ed6       data     extern E:\MPASM_MPLINK_PIC18_LT_Branch_3_42\pic18-lt\cxx-framework\src\traditional\proc\p18f44j11.asm
                   RPOR17   0x000ed7       data     extern E:\MPASM_MPLINK_PIC18_LT_Branch_3_42\pic18-lt\cxx-framework\src\traditional\proc\p18f44j11.asm
                   RPOR18   0x000ed8       data     extern E:\MPASM_MPLINK_PIC18_LT_Branch_3_42\pic18-lt\cxx-framework\src\traditional\proc\p18f44j11.asm
                   RPOR19   0x000ed9       data     extern E:\MPASM_MPLINK_PIC18_LT_Branch_3_42\pic18-lt\cxx-framework\src\traditional\proc\p18f44j11.asm
                   RPOR20   0x000eda       data     extern E:\MPASM_MPLINK_PIC18_LT_Branch_3_42\pic18-lt\cxx-framework\src\traditional\proc\p18f44j11.asm
                   RPOR21   0x000edb       data     extern E:\MPASM_MPLINK_PIC18_LT_Branch_3_42\pic18-lt\cxx-framework\src\traditional\proc\p18f44j11.asm
                   RPOR22   0x000edc       data     extern E:\MPASM_MPLINK_PIC18_LT_Branch_3_42\pic18-lt\cxx-framework\src\traditional\proc\p18f44j11.asm
                   RPOR23   0x000edd       data     extern E:\MPASM_MPLINK_PIC18_LT_Branch_3_42\pic18-lt\cxx-framework\src\traditional\proc\p18f44j11.asm
                   RPOR24   0x000ede       data     extern E:\MPASM_MPLINK_PIC18_LT_Branch_3_42\pic18-lt\cxx-framework\src\traditional\proc\p18f44j11.asm
                   RPINR1   0x000ee7       data     extern E:\MPASM_MPLINK_PIC18_LT_Branch_3_42\pic18-lt\cxx-framework\src\traditional\proc\p18f44j11.asm
                   RPINR2   0x000ee8       data     extern E:\MPASM_MPLINK_PIC18_LT_Branch_3_42\pic18-lt\cxx-framework\src\traditional\proc\p18f44j11.asm
                   RPINR3   0x000ee9       data     extern E:\MPASM_MPLINK_PIC18_LT_Branch_3_42\pic18-lt\cxx-framework\src\traditional\proc\p18f44j11.asm
                   RPINR4   0x000eea       data     extern E:\MPASM_MPLINK_PIC18_LT_Branch_3_42\pic18-lt\cxx-framework\src\traditional\proc\p18f44j11.asm
                   RPINR6   0x000eec       data     extern E:\MPASM_MPLINK_PIC18_LT_Branch_3_42\pic18-lt\cxx-framework\src\traditional\proc\p18f44j11.asm
                   RPINR7   0x000eed       data     extern E:\MPASM_MPLINK_PIC18_LT_Branch_3_42\pic18-lt\cxx-framework\src\traditional\proc\p18f44j11.asm
                   RPINR8   0x000eee       data     extern E:\MPASM_MPLINK_PIC18_LT_Branch_3_42\pic18-lt\cxx-framework\src\traditional\proc\p18f44j11.asm
                  RPINR12   0x000ef2       data     extern E:\MPASM_MPLINK_PIC18_LT_Branch_3_42\pic18-lt\cxx-framework\src\traditional\proc\p18f44j11.asm
                  RPINR13   0x000ef3       data     extern E:\MPASM_MPLINK_PIC18_LT_Branch_3_42\pic18-lt\cxx-framework\src\traditional\proc\p18f44j11.asm
                  RPINR16   0x000ef6       data     extern E:\MPASM_MPLINK_PIC18_LT_Branch_3_42\pic18-lt\cxx-framework\src\traditional\proc\p18f44j11.asm
                  RPINR17   0x000ef7       data     extern E:\MPASM_MPLINK_PIC18_LT_Branch_3_42\pic18-lt\cxx-framework\src\traditional\proc\p18f44j11.asm
                  RPINR21   0x000efb       data     extern E:\MPASM_MPLINK_PIC18_LT_Branch_3_42\pic18-lt\cxx-framework\src\traditional\proc\p18f44j11.asm
                  RPINR22   0x000efc       data     extern E:\MPASM_MPLINK_PIC18_LT_Branch_3_42\pic18-lt\cxx-framework\src\traditional\proc\p18f44j11.asm
                  RPINR23   0x000efd       data     extern E:\MPASM_MPLINK_PIC18_LT_Branch_3_42\pic18-lt\cxx-framework\src\traditional\proc\p18f44j11.asm
                  RPINR24   0x000efe       data     extern E:\MPASM_MPLINK_PIC18_LT_Branch_3_42\pic18-lt\cxx-framework\src\traditional\proc\p18f44j11.asm
                   PPSCON   0x000eff       data     extern E:\MPASM_MPLINK_PIC18_LT_Branch_3_42\pic18-lt\cxx-framework\src\traditional\proc\p18f44j11.asm
               PPSCONbits   0x000eff       data     extern E:\MPASM_MPLINK_PIC18_LT_Branch_3_42\pic18-lt\cxx-framework\src\traditional\proc\p18f44j11.asm
              PADCFG1bits   0x000f3c       data     extern E:\MPASM_MPLINK_PIC18_LT_Branch_3_42\pic18-lt\cxx-framework\src\traditional\proc\p18f44j11.asm
                  PADCFG1   0x000f3c       data     extern E:\MPASM_MPLINK_PIC18_LT_Branch_3_42\pic18-lt\cxx-framework\src\traditional\proc\p18f44j11.asm
              REFOCONbits   0x000f3d       data     extern E:\MPASM_MPLINK_PIC18_LT_Branch_3_42\pic18-lt\cxx-framework\src\traditional\proc\p18f44j11.asm
                  REFOCON   0x000f3d       data     extern E:\MPASM_MPLINK_PIC18_LT_Branch_3_42\pic18-lt\cxx-framework\src\traditional\proc\p18f44j11.asm
               RTCCALbits   0x000f3e       data     extern E:\MPASM_MPLINK_PIC18_LT_Branch_3_42\pic18-lt\cxx-framework\src\traditional\proc\p18f44j11.asm
                   RTCCAL   0x000f3e       data     extern E:\MPASM_MPLINK_PIC18_LT_Branch_3_42\pic18-lt\cxx-framework\src\traditional\proc\p18f44j11.asm
               RTCCFGbits   0x000f3f       data     extern E:\MPASM_MPLINK_PIC18_LT_Branch_3_42\pic18-lt\cxx-framework\src\traditional\proc\p18f44j11.asm
                   RTCCFG   0x000f3f       data     extern E:\MPASM_MPLINK_PIC18_LT_Branch_3_42\pic18-lt\cxx-framework\src\traditional\proc\p18f44j11.asm
                   ODCON3   0x000f40       data     extern E:\MPASM_MPLINK_PIC18_LT_Branch_3_42\pic18-lt\cxx-framework\src\traditional\proc\p18f44j11.asm
               ODCON3bits   0x000f40       data     extern E:\MPASM_MPLINK_PIC18_LT_Branch_3_42\pic18-lt\cxx-framework\src\traditional\proc\p18f44j11.asm
               ODCON2bits   0x000f41       data     extern E:\MPASM_MPLINK_PIC18_LT_Branch_3_42\pic18-lt\cxx-framework\src\traditional\proc\p18f44j11.asm
                   ODCON2   0x000f41       data     extern E:\MPASM_MPLINK_PIC18_LT_Branch_3_42\pic18-lt\cxx-framework\src\traditional\proc\p18f44j11.asm
               ODCON1bits   0x000f42       data     extern E:\MPASM_MPLINK_PIC18_LT_Branch_3_42\pic18-lt\cxx-framework\src\traditional\proc\p18f44j11.asm
                   ODCON1   0x000f42       data     extern E:\MPASM_MPLINK_PIC18_LT_Branch_3_42\pic18-lt\cxx-framework\src\traditional\proc\p18f44j11.asm
                   ANCON0   0x000f48       data     extern E:\MPASM_MPLINK_PIC18_LT_Branch_3_42\pic18-lt\cxx-framework\src\traditional\proc\p18f44j11.asm
               ANCON0bits   0x000f48       data     extern E:\MPASM_MPLINK_PIC18_LT_Branch_3_42\pic18-lt\cxx-framework\src\traditional\proc\p18f44j11.asm
               ANCON1bits   0x000f49       data     extern E:\MPASM_MPLINK_PIC18_LT_Branch_3_42\pic18-lt\cxx-framework\src\traditional\proc\p18f44j11.asm
                   ANCON1   0x000f49       data     extern E:\MPASM_MPLINK_PIC18_LT_Branch_3_42\pic18-lt\cxx-framework\src\traditional\proc\p18f44j11.asm
                  DSWAKEL   0x000f4a       data     extern E:\MPASM_MPLINK_PIC18_LT_Branch_3_42\pic18-lt\cxx-framework\src\traditional\proc\p18f44j11.asm
              DSWAKELbits   0x000f4a       data     extern E:\MPASM_MPLINK_PIC18_LT_Branch_3_42\pic18-lt\cxx-framework\src\traditional\proc\p18f44j11.asm
                  DSWAKEH   0x000f4b       data     extern E:\MPASM_MPLINK_PIC18_LT_Branch_3_42\pic18-lt\cxx-framework\src\traditional\proc\p18f44j11.asm
              DSWAKEHbits   0x000f4b       data     extern E:\MPASM_MPLINK_PIC18_LT_Branch_3_42\pic18-lt\cxx-framework\src\traditional\proc\p18f44j11.asm
               DSCONLbits   0x000f4c       data     extern E:\MPASM_MPLINK_PIC18_LT_Branch_3_42\pic18-lt\cxx-framework\src\traditional\proc\p18f44j11.asm
                   DSCONL   0x000f4c       data     extern E:\MPASM_MPLINK_PIC18_LT_Branch_3_42\pic18-lt\cxx-framework\src\traditional\proc\p18f44j11.asm
                   DSCONH   0x000f4d       data     extern E:\MPASM_MPLINK_PIC18_LT_Branch_3_42\pic18-lt\cxx-framework\src\traditional\proc\p18f44j11.asm
               DSCONHbits   0x000f4d       data     extern E:\MPASM_MPLINK_PIC18_LT_Branch_3_42\pic18-lt\cxx-framework\src\traditional\proc\p18f44j11.asm
                   DSGPR0   0x000f4e       data     extern E:\MPASM_MPLINK_PIC18_LT_Branch_3_42\pic18-lt\cxx-framework\src\traditional\proc\p18f44j11.asm
                   DSGPR1   0x000f4f       data     extern E:\MPASM_MPLINK_PIC18_LT_Branch_3_42\pic18-lt\cxx-framework\src\traditional\proc\p18f44j11.asm
                  TCLKCON   0x000f52       data     extern E:\MPASM_MPLINK_PIC18_LT_Branch_3_42\pic18-lt\cxx-framework\src\traditional\proc\p18f44j11.asm
              TCLKCONbits   0x000f52       data     extern E:\MPASM_MPLINK_PIC18_LT_Branch_3_42\pic18-lt\cxx-framework\src\traditional\proc\p18f44j11.asm
               CVRCONbits   0x000f53       data     extern E:\MPASM_MPLINK_PIC18_LT_Branch_3_42\pic18-lt\cxx-framework\src\traditional\proc\p18f44j11.asm
                   CVRCON   0x000f53       data     extern E:\MPASM_MPLINK_PIC18_LT_Branch_3_42\pic18-lt\cxx-framework\src\traditional\proc\p18f44j11.asm
              PMSTATLbits   0x000f54       data     extern E:\MPASM_MPLINK_PIC18_LT_Branch_3_42\pic18-lt\cxx-framework\src\traditional\proc\p18f44j11.asm
                  PMSTATL   0x000f54       data     extern E:\MPASM_MPLINK_PIC18_LT_Branch_3_42\pic18-lt\cxx-framework\src\traditional\proc\p18f44j11.asm
                  PMSTATH   0x000f55       data     extern E:\MPASM_MPLINK_PIC18_LT_Branch_3_42\pic18-lt\cxx-framework\src\traditional\proc\p18f44j11.asm
              PMSTATHbits   0x000f55       data     extern E:\MPASM_MPLINK_PIC18_LT_Branch_3_42\pic18-lt\cxx-framework\src\traditional\proc\p18f44j11.asm
                 PMELbits   0x000f56       data     extern E:\MPASM_MPLINK_PIC18_LT_Branch_3_42\pic18-lt\cxx-framework\src\traditional\proc\p18f44j11.asm
                     PMEL   0x000f56       data     extern E:\MPASM_MPLINK_PIC18_LT_Branch_3_42\pic18-lt\cxx-framework\src\traditional\proc\p18f44j11.asm
                 PMEHbits   0x000f57       data     extern E:\MPASM_MPLINK_PIC18_LT_Branch_3_42\pic18-lt\cxx-framework\src\traditional\proc\p18f44j11.asm
                     PMEH   0x000f57       data     extern E:\MPASM_MPLINK_PIC18_LT_Branch_3_42\pic18-lt\cxx-framework\src\traditional\proc\p18f44j11.asm
                  PMDIN2L   0x000f58       data     extern E:\MPASM_MPLINK_PIC18_LT_Branch_3_42\pic18-lt\cxx-framework\src\traditional\proc\p18f44j11.asm
                  PMDIN2H   0x000f59       data     extern E:\MPASM_MPLINK_PIC18_LT_Branch_3_42\pic18-lt\cxx-framework\src\traditional\proc\p18f44j11.asm
                 PMDOUT2L   0x000f5a       data     extern E:\MPASM_MPLINK_PIC18_LT_Branch_3_42\pic18-lt\cxx-framework\src\traditional\proc\p18f44j11.asm
                 PMDOUT2H   0x000f5b       data     extern E:\MPASM_MPLINK_PIC18_LT_Branch_3_42\pic18-lt\cxx-framework\src\traditional\proc\p18f44j11.asm
                  PMMODEL   0x000f5c       data     extern E:\MPASM_MPLINK_PIC18_LT_Branch_3_42\pic18-lt\cxx-framework\src\traditional\proc\p18f44j11.asm
              PMMODELbits   0x000f5c       data     extern E:\MPASM_MPLINK_PIC18_LT_Branch_3_42\pic18-lt\cxx-framework\src\traditional\proc\p18f44j11.asm
                  PMMODEH   0x000f5d       data     extern E:\MPASM_MPLINK_PIC18_LT_Branch_3_42\pic18-lt\cxx-framework\src\traditional\proc\p18f44j11.asm
              PMMODEHbits   0x000f5d       data     extern E:\MPASM_MPLINK_PIC18_LT_Branch_3_42\pic18-lt\cxx-framework\src\traditional\proc\p18f44j11.asm
               PMCONLbits   0x000f5e       data     extern E:\MPASM_MPLINK_PIC18_LT_Branch_3_42\pic18-lt\cxx-framework\src\traditional\proc\p18f44j11.asm
                   PMCONL   0x000f5e       data     extern E:\MPASM_MPLINK_PIC18_LT_Branch_3_42\pic18-lt\cxx-framework\src\traditional\proc\p18f44j11.asm
               PMCONHbits   0x000f5f       data     extern E:\MPASM_MPLINK_PIC18_LT_Branch_3_42\pic18-lt\cxx-framework\src\traditional\proc\p18f44j11.asm
                   PMCONH   0x000f5f       data     extern E:\MPASM_MPLINK_PIC18_LT_Branch_3_42\pic18-lt\cxx-framework\src\traditional\proc\p18f44j11.asm
                   DMABCH   0x000f66       data     extern E:\MPASM_MPLINK_PIC18_LT_Branch_3_42\pic18-lt\cxx-framework\src\traditional\proc\p18f44j11.asm
               DMABCHbits   0x000f66       data     extern E:\MPASM_MPLINK_PIC18_LT_Branch_3_42\pic18-lt\cxx-framework\src\traditional\proc\p18f44j11.asm
                   DMABCL   0x000f67       data     extern E:\MPASM_MPLINK_PIC18_LT_Branch_3_42\pic18-lt\cxx-framework\src\traditional\proc\p18f44j11.asm
              RXADDRHbits   0x000f68       data     extern E:\MPASM_MPLINK_PIC18_LT_Branch_3_42\pic18-lt\cxx-framework\src\traditional\proc\p18f44j11.asm
                  RXADDRH   0x000f68       data     extern E:\MPASM_MPLINK_PIC18_LT_Branch_3_42\pic18-lt\cxx-framework\src\traditional\proc\p18f44j11.asm
                  RXADDRL   0x000f69       data     extern E:\MPASM_MPLINK_PIC18_LT_Branch_3_42\pic18-lt\cxx-framework\src\traditional\proc\p18f44j11.asm
              TXADDRHbits   0x000f6a       data     extern E:\MPASM_MPLINK_PIC18_LT_Branch_3_42\pic18-lt\cxx-framework\src\traditional\proc\p18f44j11.asm
                  TXADDRH   0x000f6a       data     extern E:\MPASM_MPLINK_PIC18_LT_Branch_3_42\pic18-lt\cxx-framework\src\traditional\proc\p18f44j11.asm
                  TXADDRL   0x000f6b       data     extern E:\MPASM_MPLINK_PIC18_LT_Branch_3_42\pic18-lt\cxx-framework\src\traditional\proc\p18f44j11.asm
                  PMDIN1L   0x000f6c       data     extern E:\MPASM_MPLINK_PIC18_LT_Branch_3_42\pic18-lt\cxx-framework\src\traditional\proc\p18f44j11.asm
                  PMDIN1H   0x000f6d       data     extern E:\MPASM_MPLINK_PIC18_LT_Branch_3_42\pic18-lt\cxx-framework\src\traditional\proc\p18f44j11.asm
                 PMDOUT1L   0x000f6e       data     extern E:\MPASM_MPLINK_PIC18_LT_Branch_3_42\pic18-lt\cxx-framework\src\traditional\proc\p18f44j11.asm
                  PMADDRL   0x000f6e       data     extern E:\MPASM_MPLINK_PIC18_LT_Branch_3_42\pic18-lt\cxx-framework\src\traditional\proc\p18f44j11.asm
                 PMDOUT1H   0x000f6f       data     extern E:\MPASM_MPLINK_PIC18_LT_Branch_3_42\pic18-lt\cxx-framework\src\traditional\proc\p18f44j11.asm
                  PMADDRH   0x000f6f       data     extern E:\MPASM_MPLINK_PIC18_LT_Branch_3_42\pic18-lt\cxx-framework\src\traditional\proc\p18f44j11.asm
              PMADDRHbits   0x000f6f       data     extern E:\MPASM_MPLINK_PIC18_LT_Branch_3_42\pic18-lt\cxx-framework\src\traditional\proc\p18f44j11.asm
             CMSTATUSbits   0x000f70       data     extern E:\MPASM_MPLINK_PIC18_LT_Branch_3_42\pic18-lt\cxx-framework\src\traditional\proc\p18f44j11.asm
                 CMSTATUS   0x000f70       data     extern E:\MPASM_MPLINK_PIC18_LT_Branch_3_42\pic18-lt\cxx-framework\src\traditional\proc\p18f44j11.asm
                   CMSTAT   0x000f70       data     extern E:\MPASM_MPLINK_PIC18_LT_Branch_3_42\pic18-lt\cxx-framework\src\traditional\proc\p18f44j11.asm
               CMSTATbits   0x000f70       data     extern E:\MPASM_MPLINK_PIC18_LT_Branch_3_42\pic18-lt\cxx-framework\src\traditional\proc\p18f44j11.asm
             SSP2CON2bits   0x000f71       data     extern E:\MPASM_MPLINK_PIC18_LT_Branch_3_42\pic18-lt\cxx-framework\src\traditional\proc\p18f44j11.asm
                 SSP2CON2   0x000f71       data     extern E:\MPASM_MPLINK_PIC18_LT_Branch_3_42\pic18-lt\cxx-framework\src\traditional\proc\p18f44j11.asm
                 SSP2CON1   0x000f72       data     extern E:\MPASM_MPLINK_PIC18_LT_Branch_3_42\pic18-lt\cxx-framework\src\traditional\proc\p18f44j11.asm
             SSP2CON1bits   0x000f72       data     extern E:\MPASM_MPLINK_PIC18_LT_Branch_3_42\pic18-lt\cxx-framework\src\traditional\proc\p18f44j11.asm
             SSP2STATbits   0x000f73       data     extern E:\MPASM_MPLINK_PIC18_LT_Branch_3_42\pic18-lt\cxx-framework\src\traditional\proc\p18f44j11.asm
                 SSP2STAT   0x000f73       data     extern E:\MPASM_MPLINK_PIC18_LT_Branch_3_42\pic18-lt\cxx-framework\src\traditional\proc\p18f44j11.asm
                  SSP2ADD   0x000f74       data     extern E:\MPASM_MPLINK_PIC18_LT_Branch_3_42\pic18-lt\cxx-framework\src\traditional\proc\p18f44j11.asm
              SSP2ADDbits   0x000f74       data     extern E:\MPASM_MPLINK_PIC18_LT_Branch_3_42\pic18-lt\cxx-framework\src\traditional\proc\p18f44j11.asm
                  SSP2BUF   0x000f75       data     extern E:\MPASM_MPLINK_PIC18_LT_Branch_3_42\pic18-lt\cxx-framework\src\traditional\proc\p18f44j11.asm
                    T4CON   0x000f76       data     extern E:\MPASM_MPLINK_PIC18_LT_Branch_3_42\pic18-lt\cxx-framework\src\traditional\proc\p18f44j11.asm
                T4CONbits   0x000f76       data     extern E:\MPASM_MPLINK_PIC18_LT_Branch_3_42\pic18-lt\cxx-framework\src\traditional\proc\p18f44j11.asm
                      PR4   0x000f77       data     extern E:\MPASM_MPLINK_PIC18_LT_Branch_3_42\pic18-lt\cxx-framework\src\traditional\proc\p18f44j11.asm
                     TMR4   0x000f78       data     extern E:\MPASM_MPLINK_PIC18_LT_Branch_3_42\pic18-lt\cxx-framework\src\traditional\proc\p18f44j11.asm
                T3CONbits   0x000f79       data     extern E:\MPASM_MPLINK_PIC18_LT_Branch_3_42\pic18-lt\cxx-framework\src\traditional\proc\p18f44j11.asm
                    T3CON   0x000f79       data     extern E:\MPASM_MPLINK_PIC18_LT_Branch_3_42\pic18-lt\cxx-framework\src\traditional\proc\p18f44j11.asm
                    TMR3L   0x000f7a       data     extern E:\MPASM_MPLINK_PIC18_LT_Branch_3_42\pic18-lt\cxx-framework\src\traditional\proc\p18f44j11.asm
                    TMR3H   0x000f7b       data     extern E:\MPASM_MPLINK_PIC18_LT_Branch_3_42\pic18-lt\cxx-framework\src\traditional\proc\p18f44j11.asm
             BAUDCON2bits   0x000f7c       data     extern E:\MPASM_MPLINK_PIC18_LT_Branch_3_42\pic18-lt\cxx-framework\src\traditional\proc\p18f44j11.asm
                 BAUDCON2   0x000f7c       data     extern E:\MPASM_MPLINK_PIC18_LT_Branch_3_42\pic18-lt\cxx-framework\src\traditional\proc\p18f44j11.asm
                  SPBRGH2   0x000f7d       data     extern E:\MPASM_MPLINK_PIC18_LT_Branch_3_42\pic18-lt\cxx-framework\src\traditional\proc\p18f44j11.asm
              BAUDCONbits   0x000f7e       data     extern E:\MPASM_MPLINK_PIC18_LT_Branch_3_42\pic18-lt\cxx-framework\src\traditional\proc\p18f44j11.asm
             BAUDCON1bits   0x000f7e       data     extern E:\MPASM_MPLINK_PIC18_LT_Branch_3_42\pic18-lt\cxx-framework\src\traditional\proc\p18f44j11.asm
              BAUDCTLbits   0x000f7e       data     extern E:\MPASM_MPLINK_PIC18_LT_Branch_3_42\pic18-lt\cxx-framework\src\traditional\proc\p18f44j11.asm
                  BAUDCTL   0x000f7e       data     extern E:\MPASM_MPLINK_PIC18_LT_Branch_3_42\pic18-lt\cxx-framework\src\traditional\proc\p18f44j11.asm
                 BAUDCON1   0x000f7e       data     extern E:\MPASM_MPLINK_PIC18_LT_Branch_3_42\pic18-lt\cxx-framework\src\traditional\proc\p18f44j11.asm
                  BAUDCON   0x000f7e       data     extern E:\MPASM_MPLINK_PIC18_LT_Branch_3_42\pic18-lt\cxx-framework\src\traditional\proc\p18f44j11.asm
                   SPBRGH   0x000f7f       data     extern E:\MPASM_MPLINK_PIC18_LT_Branch_3_42\pic18-lt\cxx-framework\src\traditional\proc\p18f44j11.asm
                  SPBRGH1   0x000f7f       data     extern E:\MPASM_MPLINK_PIC18_LT_Branch_3_42\pic18-lt\cxx-framework\src\traditional\proc\p18f44j11.asm
                PORTAbits   0x000f80       data     extern E:\MPASM_MPLINK_PIC18_LT_Branch_3_42\pic18-lt\cxx-framework\src\traditional\proc\p18f44j11.asm
                    PORTA   0x000f80       data     extern E:\MPASM_MPLINK_PIC18_LT_Branch_3_42\pic18-lt\cxx-framework\src\traditional\proc\p18f44j11.asm
                    PORTB   0x000f81       data     extern E:\MPASM_MPLINK_PIC18_LT_Branch_3_42\pic18-lt\cxx-framework\src\traditional\proc\p18f44j11.asm
                PORTBbits   0x000f81       data     extern E:\MPASM_MPLINK_PIC18_LT_Branch_3_42\pic18-lt\cxx-framework\src\traditional\proc\p18f44j11.asm
                    PORTC   0x000f82       data     extern E:\MPASM_MPLINK_PIC18_LT_Branch_3_42\pic18-lt\cxx-framework\src\traditional\proc\p18f44j11.asm
                PORTCbits   0x000f82       data     extern E:\MPASM_MPLINK_PIC18_LT_Branch_3_42\pic18-lt\cxx-framework\src\traditional\proc\p18f44j11.asm
                    PORTD   0x000f83       data     extern E:\MPASM_MPLINK_PIC18_LT_Branch_3_42\pic18-lt\cxx-framework\src\traditional\proc\p18f44j11.asm
                PORTDbits   0x000f83       data     extern E:\MPASM_MPLINK_PIC18_LT_Branch_3_42\pic18-lt\cxx-framework\src\traditional\proc\p18f44j11.asm
                    PORTE   0x000f84       data     extern E:\MPASM_MPLINK_PIC18_LT_Branch_3_42\pic18-lt\cxx-framework\src\traditional\proc\p18f44j11.asm
                PORTEbits   0x000f84       data     extern E:\MPASM_MPLINK_PIC18_LT_Branch_3_42\pic18-lt\cxx-framework\src\traditional\proc\p18f44j11.asm
              HLVDCONbits   0x000f85       data     extern E:\MPASM_MPLINK_PIC18_LT_Branch_3_42\pic18-lt\cxx-framework\src\traditional\proc\p18f44j11.asm
                  HLVDCON   0x000f85       data     extern E:\MPASM_MPLINK_PIC18_LT_Branch_3_42\pic18-lt\cxx-framework\src\traditional\proc\p18f44j11.asm
              DMACON2bits   0x000f86       data     extern E:\MPASM_MPLINK_PIC18_LT_Branch_3_42\pic18-lt\cxx-framework\src\traditional\proc\p18f44j11.asm
                  DMACON2   0x000f86       data     extern E:\MPASM_MPLINK_PIC18_LT_Branch_3_42\pic18-lt\cxx-framework\src\traditional\proc\p18f44j11.asm
                  DMACON1   0x000f88       data     extern E:\MPASM_MPLINK_PIC18_LT_Branch_3_42\pic18-lt\cxx-framework\src\traditional\proc\p18f44j11.asm
              DMACON1bits   0x000f88       data     extern E:\MPASM_MPLINK_PIC18_LT_Branch_3_42\pic18-lt\cxx-framework\src\traditional\proc\p18f44j11.asm
                     LATA   0x000f89       data     extern E:\MPASM_MPLINK_PIC18_LT_Branch_3_42\pic18-lt\cxx-framework\src\traditional\proc\p18f44j11.asm
                 LATAbits   0x000f89       data     extern E:\MPASM_MPLINK_PIC18_LT_Branch_3_42\pic18-lt\cxx-framework\src\traditional\proc\p18f44j11.asm
                     LATB   0x000f8a       data     extern E:\MPASM_MPLINK_PIC18_LT_Branch_3_42\pic18-lt\cxx-framework\src\traditional\proc\p18f44j11.asm
                 LATBbits   0x000f8a       data     extern E:\MPASM_MPLINK_PIC18_LT_Branch_3_42\pic18-lt\cxx-framework\src\traditional\proc\p18f44j11.asm
                     LATC   0x000f8b       data     extern E:\MPASM_MPLINK_PIC18_LT_Branch_3_42\pic18-lt\cxx-framework\src\traditional\proc\p18f44j11.asm
                 LATCbits   0x000f8b       data     extern E:\MPASM_MPLINK_PIC18_LT_Branch_3_42\pic18-lt\cxx-framework\src\traditional\proc\p18f44j11.asm
                     LATD   0x000f8c       data     extern E:\MPASM_MPLINK_PIC18_LT_Branch_3_42\pic18-lt\cxx-framework\src\traditional\proc\p18f44j11.asm
                 LATDbits   0x000f8c       data     extern E:\MPASM_MPLINK_PIC18_LT_Branch_3_42\pic18-lt\cxx-framework\src\traditional\proc\p18f44j11.asm
                     LATE   0x000f8d       data     extern E:\MPASM_MPLINK_PIC18_LT_Branch_3_42\pic18-lt\cxx-framework\src\traditional\proc\p18f44j11.asm
                 LATEbits   0x000f8d       data     extern E:\MPASM_MPLINK_PIC18_LT_Branch_3_42\pic18-lt\cxx-framework\src\traditional\proc\p18f44j11.asm
                 ALRMVALL   0x000f8e       data     extern E:\MPASM_MPLINK_PIC18_LT_Branch_3_42\pic18-lt\cxx-framework\src\traditional\proc\p18f44j11.asm
                 ALRMVALH   0x000f8f       data     extern E:\MPASM_MPLINK_PIC18_LT_Branch_3_42\pic18-lt\cxx-framework\src\traditional\proc\p18f44j11.asm
              ALRMRPTbits   0x000f90       data     extern E:\MPASM_MPLINK_PIC18_LT_Branch_3_42\pic18-lt\cxx-framework\src\traditional\proc\p18f44j11.asm
                  ALRMRPT   0x000f90       data     extern E:\MPASM_MPLINK_PIC18_LT_Branch_3_42\pic18-lt\cxx-framework\src\traditional\proc\p18f44j11.asm
              ALRMCFGbits   0x000f91       data     extern E:\MPASM_MPLINK_PIC18_LT_Branch_3_42\pic18-lt\cxx-framework\src\traditional\proc\p18f44j11.asm
                  ALRMCFG   0x000f91       data     extern E:\MPASM_MPLINK_PIC18_LT_Branch_3_42\pic18-lt\cxx-framework\src\traditional\proc\p18f44j11.asm
                TRISAbits   0x000f92       data     extern E:\MPASM_MPLINK_PIC18_LT_Branch_3_42\pic18-lt\cxx-framework\src\traditional\proc\p18f44j11.asm
                    TRISA   0x000f92       data     extern E:\MPASM_MPLINK_PIC18_LT_Branch_3_42\pic18-lt\cxx-framework\src\traditional\proc\p18f44j11.asm
                    TRISB   0x000f93       data     extern E:\MPASM_MPLINK_PIC18_LT_Branch_3_42\pic18-lt\cxx-framework\src\traditional\proc\p18f44j11.asm
                TRISBbits   0x000f93       data     extern E:\MPASM_MPLINK_PIC18_LT_Branch_3_42\pic18-lt\cxx-framework\src\traditional\proc\p18f44j11.asm
                    TRISC   0x000f94       data     extern E:\MPASM_MPLINK_PIC18_LT_Branch_3_42\pic18-lt\cxx-framework\src\traditional\proc\p18f44j11.asm
                TRISCbits   0x000f94       data     extern E:\MPASM_MPLINK_PIC18_LT_Branch_3_42\pic18-lt\cxx-framework\src\traditional\proc\p18f44j11.asm
                    TRISD   0x000f95       data     extern E:\MPASM_MPLINK_PIC18_LT_Branch_3_42\pic18-lt\cxx-framework\src\traditional\proc\p18f44j11.asm
                TRISDbits   0x000f95       data     extern E:\MPASM_MPLINK_PIC18_LT_Branch_3_42\pic18-lt\cxx-framework\src\traditional\proc\p18f44j11.asm
                    TRISE   0x000f96       data     extern E:\MPASM_MPLINK_PIC18_LT_Branch_3_42\pic18-lt\cxx-framework\src\traditional\proc\p18f44j11.asm
                TRISEbits   0x000f96       data     extern E:\MPASM_MPLINK_PIC18_LT_Branch_3_42\pic18-lt\cxx-framework\src\traditional\proc\p18f44j11.asm
                   T3GCON   0x000f97       data     extern E:\MPASM_MPLINK_PIC18_LT_Branch_3_42\pic18-lt\cxx-framework\src\traditional\proc\p18f44j11.asm
               T3GCONbits   0x000f97       data     extern E:\MPASM_MPLINK_PIC18_LT_Branch_3_42\pic18-lt\cxx-framework\src\traditional\proc\p18f44j11.asm
                  RTCVALL   0x000f98       data     extern E:\MPASM_MPLINK_PIC18_LT_Branch_3_42\pic18-lt\cxx-framework\src\traditional\proc\p18f44j11.asm
                  RTCVALH   0x000f99       data     extern E:\MPASM_MPLINK_PIC18_LT_Branch_3_42\pic18-lt\cxx-framework\src\traditional\proc\p18f44j11.asm
               T1GCONbits   0x000f9a       data     extern E:\MPASM_MPLINK_PIC18_LT_Branch_3_42\pic18-lt\cxx-framework\src\traditional\proc\p18f44j11.asm
                   T1GCON   0x000f9a       data     extern E:\MPASM_MPLINK_PIC18_LT_Branch_3_42\pic18-lt\cxx-framework\src\traditional\proc\p18f44j11.asm
              OSCTUNEbits   0x000f9b       data     extern E:\MPASM_MPLINK_PIC18_LT_Branch_3_42\pic18-lt\cxx-framework\src\traditional\proc\p18f44j11.asm
                  OSCTUNE   0x000f9b       data     extern E:\MPASM_MPLINK_PIC18_LT_Branch_3_42\pic18-lt\cxx-framework\src\traditional\proc\p18f44j11.asm
               RCSTA2bits   0x000f9c       data     extern E:\MPASM_MPLINK_PIC18_LT_Branch_3_42\pic18-lt\cxx-framework\src\traditional\proc\p18f44j11.asm
                   RCSTA2   0x000f9c       data     extern E:\MPASM_MPLINK_PIC18_LT_Branch_3_42\pic18-lt\cxx-framework\src\traditional\proc\p18f44j11.asm
                     PIE1   0x000f9d       data     extern E:\MPASM_MPLINK_PIC18_LT_Branch_3_42\pic18-lt\cxx-framework\src\traditional\proc\p18f44j11.asm
                 PIE1bits   0x000f9d       data     extern E:\MPASM_MPLINK_PIC18_LT_Branch_3_42\pic18-lt\cxx-framework\src\traditional\proc\p18f44j11.asm
                 PIR1bits   0x000f9e       data     extern E:\MPASM_MPLINK_PIC18_LT_Branch_3_42\pic18-lt\cxx-framework\src\traditional\proc\p18f44j11.asm
                     PIR1   0x000f9e       data     extern E:\MPASM_MPLINK_PIC18_LT_Branch_3_42\pic18-lt\cxx-framework\src\traditional\proc\p18f44j11.asm
                 IPR1bits   0x000f9f       data     extern E:\MPASM_MPLINK_PIC18_LT_Branch_3_42\pic18-lt\cxx-framework\src\traditional\proc\p18f44j11.asm
                     IPR1   0x000f9f       data     extern E:\MPASM_MPLINK_PIC18_LT_Branch_3_42\pic18-lt\cxx-framework\src\traditional\proc\p18f44j11.asm
                     PIE2   0x000fa0       data     extern E:\MPASM_MPLINK_PIC18_LT_Branch_3_42\pic18-lt\cxx-framework\src\traditional\proc\p18f44j11.asm
                 PIE2bits   0x000fa0       data     extern E:\MPASM_MPLINK_PIC18_LT_Branch_3_42\pic18-lt\cxx-framework\src\traditional\proc\p18f44j11.asm
                 PIR2bits   0x000fa1       data     extern E:\MPASM_MPLINK_PIC18_LT_Branch_3_42\pic18-lt\cxx-framework\src\traditional\proc\p18f44j11.asm
                     PIR2   0x000fa1       data     extern E:\MPASM_MPLINK_PIC18_LT_Branch_3_42\pic18-lt\cxx-framework\src\traditional\proc\p18f44j11.asm
                     IPR2   0x000fa2       data     extern E:\MPASM_MPLINK_PIC18_LT_Branch_3_42\pic18-lt\cxx-framework\src\traditional\proc\p18f44j11.asm
                 IPR2bits   0x000fa2       data     extern E:\MPASM_MPLINK_PIC18_LT_Branch_3_42\pic18-lt\cxx-framework\src\traditional\proc\p18f44j11.asm
                     PIE3   0x000fa3       data     extern E:\MPASM_MPLINK_PIC18_LT_Branch_3_42\pic18-lt\cxx-framework\src\traditional\proc\p18f44j11.asm
                 PIE3bits   0x000fa3       data     extern E:\MPASM_MPLINK_PIC18_LT_Branch_3_42\pic18-lt\cxx-framework\src\traditional\proc\p18f44j11.asm
                     PIR3   0x000fa4       data     extern E:\MPASM_MPLINK_PIC18_LT_Branch_3_42\pic18-lt\cxx-framework\src\traditional\proc\p18f44j11.asm
                 PIR3bits   0x000fa4       data     extern E:\MPASM_MPLINK_PIC18_LT_Branch_3_42\pic18-lt\cxx-framework\src\traditional\proc\p18f44j11.asm
                     IPR3   0x000fa5       data     extern E:\MPASM_MPLINK_PIC18_LT_Branch_3_42\pic18-lt\cxx-framework\src\traditional\proc\p18f44j11.asm
                 IPR3bits   0x000fa5       data     extern E:\MPASM_MPLINK_PIC18_LT_Branch_3_42\pic18-lt\cxx-framework\src\traditional\proc\p18f44j11.asm
                   EECON1   0x000fa6       data     extern E:\MPASM_MPLINK_PIC18_LT_Branch_3_42\pic18-lt\cxx-framework\src\traditional\proc\p18f44j11.asm
               EECON1bits   0x000fa6       data     extern E:\MPASM_MPLINK_PIC18_LT_Branch_3_42\pic18-lt\cxx-framework\src\traditional\proc\p18f44j11.asm
                   EECON2   0x000fa7       data     extern E:\MPASM_MPLINK_PIC18_LT_Branch_3_42\pic18-lt\cxx-framework\src\traditional\proc\p18f44j11.asm
                   TXSTA2   0x000fa8       data     extern E:\MPASM_MPLINK_PIC18_LT_Branch_3_42\pic18-lt\cxx-framework\src\traditional\proc\p18f44j11.asm
               TXSTA2bits   0x000fa8       data     extern E:\MPASM_MPLINK_PIC18_LT_Branch_3_42\pic18-lt\cxx-framework\src\traditional\proc\p18f44j11.asm
                   TXREG2   0x000fa9       data     extern E:\MPASM_MPLINK_PIC18_LT_Branch_3_42\pic18-lt\cxx-framework\src\traditional\proc\p18f44j11.asm
                   RCREG2   0x000faa       data     extern E:\MPASM_MPLINK_PIC18_LT_Branch_3_42\pic18-lt\cxx-framework\src\traditional\proc\p18f44j11.asm
                   SPBRG2   0x000fab       data     extern E:\MPASM_MPLINK_PIC18_LT_Branch_3_42\pic18-lt\cxx-framework\src\traditional\proc\p18f44j11.asm
                    RCSTA   0x000fac       data     extern E:\MPASM_MPLINK_PIC18_LT_Branch_3_42\pic18-lt\cxx-framework\src\traditional\proc\p18f44j11.asm
                   RCSTA1   0x000fac       data     extern E:\MPASM_MPLINK_PIC18_LT_Branch_3_42\pic18-lt\cxx-framework\src\traditional\proc\p18f44j11.asm
               RCSTA1bits   0x000fac       data     extern E:\MPASM_MPLINK_PIC18_LT_Branch_3_42\pic18-lt\cxx-framework\src\traditional\proc\p18f44j11.asm
                RCSTAbits   0x000fac       data     extern E:\MPASM_MPLINK_PIC18_LT_Branch_3_42\pic18-lt\cxx-framework\src\traditional\proc\p18f44j11.asm
                   TXSTA1   0x000fad       data     extern E:\MPASM_MPLINK_PIC18_LT_Branch_3_42\pic18-lt\cxx-framework\src\traditional\proc\p18f44j11.asm
                    TXSTA   0x000fad       data     extern E:\MPASM_MPLINK_PIC18_LT_Branch_3_42\pic18-lt\cxx-framework\src\traditional\proc\p18f44j11.asm
                TXSTAbits   0x000fad       data     extern E:\MPASM_MPLINK_PIC18_LT_Branch_3_42\pic18-lt\cxx-framework\src\traditional\proc\p18f44j11.asm
               TXSTA1bits   0x000fad       data     extern E:\MPASM_MPLINK_PIC18_LT_Branch_3_42\pic18-lt\cxx-framework\src\traditional\proc\p18f44j11.asm
                   TXREG1   0x000fae       data     extern E:\MPASM_MPLINK_PIC18_LT_Branch_3_42\pic18-lt\cxx-framework\src\traditional\proc\p18f44j11.asm
                    TXREG   0x000fae       data     extern E:\MPASM_MPLINK_PIC18_LT_Branch_3_42\pic18-lt\cxx-framework\src\traditional\proc\p18f44j11.asm
                   RCREG1   0x000faf       data     extern E:\MPASM_MPLINK_PIC18_LT_Branch_3_42\pic18-lt\cxx-framework\src\traditional\proc\p18f44j11.asm
                    RCREG   0x000faf       data     extern E:\MPASM_MPLINK_PIC18_LT_Branch_3_42\pic18-lt\cxx-framework\src\traditional\proc\p18f44j11.asm
                   SPBRG1   0x000fb0       data     extern E:\MPASM_MPLINK_PIC18_LT_Branch_3_42\pic18-lt\cxx-framework\src\traditional\proc\p18f44j11.asm
                    SPBRG   0x000fb0       data     extern E:\MPASM_MPLINK_PIC18_LT_Branch_3_42\pic18-lt\cxx-framework\src\traditional\proc\p18f44j11.asm
                 CTMUICON   0x000fb1       data     extern E:\MPASM_MPLINK_PIC18_LT_Branch_3_42\pic18-lt\cxx-framework\src\traditional\proc\p18f44j11.asm
             CTMUICONbits   0x000fb1       data     extern E:\MPASM_MPLINK_PIC18_LT_Branch_3_42\pic18-lt\cxx-framework\src\traditional\proc\p18f44j11.asm
                 CTMUCONL   0x000fb2       data     extern E:\MPASM_MPLINK_PIC18_LT_Branch_3_42\pic18-lt\cxx-framework\src\traditional\proc\p18f44j11.asm
             CTMUCONLbits   0x000fb2       data     extern E:\MPASM_MPLINK_PIC18_LT_Branch_3_42\pic18-lt\cxx-framework\src\traditional\proc\p18f44j11.asm
                 CTMUCONH   0x000fb3       data     extern E:\MPASM_MPLINK_PIC18_LT_Branch_3_42\pic18-lt\cxx-framework\src\traditional\proc\p18f44j11.asm
             CTMUCONHbits   0x000fb3       data     extern E:\MPASM_MPLINK_PIC18_LT_Branch_3_42\pic18-lt\cxx-framework\src\traditional\proc\p18f44j11.asm
              CCP2CONbits   0x000fb4       data     extern E:\MPASM_MPLINK_PIC18_LT_Branch_3_42\pic18-lt\cxx-framework\src\traditional\proc\p18f44j11.asm
                 ECCP2CON   0x000fb4       data     extern E:\MPASM_MPLINK_PIC18_LT_Branch_3_42\pic18-lt\cxx-framework\src\traditional\proc\p18f44j11.asm
             ECCP2CONbits   0x000fb4       data     extern E:\MPASM_MPLINK_PIC18_LT_Branch_3_42\pic18-lt\cxx-framework\src\traditional\proc\p18f44j11.asm
                  CCP2CON   0x000fb4       data     extern E:\MPASM_MPLINK_PIC18_LT_Branch_3_42\pic18-lt\cxx-framework\src\traditional\proc\p18f44j11.asm
                    CCPR2   0x000fb5       data     extern E:\MPASM_MPLINK_PIC18_LT_Branch_3_42\pic18-lt\cxx-framework\src\traditional\proc\p18f44j11.asm
                   CCPR2L   0x000fb5       data     extern E:\MPASM_MPLINK_PIC18_LT_Branch_3_42\pic18-lt\cxx-framework\src\traditional\proc\p18f44j11.asm
                   CCPR2H   0x000fb6       data     extern E:\MPASM_MPLINK_PIC18_LT_Branch_3_42\pic18-lt\cxx-framework\src\traditional\proc\p18f44j11.asm
                  PWM2CON   0x000fb7       data     extern E:\MPASM_MPLINK_PIC18_LT_Branch_3_42\pic18-lt\cxx-framework\src\traditional\proc\p18f44j11.asm
              PWM2CONbits   0x000fb7       data     extern E:\MPASM_MPLINK_PIC18_LT_Branch_3_42\pic18-lt\cxx-framework\src\traditional\proc\p18f44j11.asm
             ECCP2DELbits   0x000fb7       data     extern E:\MPASM_MPLINK_PIC18_LT_Branch_3_42\pic18-lt\cxx-framework\src\traditional\proc\p18f44j11.asm
                 ECCP2DEL   0x000fb7       data     extern E:\MPASM_MPLINK_PIC18_LT_Branch_3_42\pic18-lt\cxx-framework\src\traditional\proc\p18f44j11.asm
              ECCP2ASbits   0x000fb8       data     extern E:\MPASM_MPLINK_PIC18_LT_Branch_3_42\pic18-lt\cxx-framework\src\traditional\proc\p18f44j11.asm
                  ECCP2AS   0x000fb8       data     extern E:\MPASM_MPLINK_PIC18_LT_Branch_3_42\pic18-lt\cxx-framework\src\traditional\proc\p18f44j11.asm
             PSTR2CONbits   0x000fb9       data     extern E:\MPASM_MPLINK_PIC18_LT_Branch_3_42\pic18-lt\cxx-framework\src\traditional\proc\p18f44j11.asm
                 PSTR2CON   0x000fb9       data     extern E:\MPASM_MPLINK_PIC18_LT_Branch_3_42\pic18-lt\cxx-framework\src\traditional\proc\p18f44j11.asm
                 ECCP1CON   0x000fba       data     extern E:\MPASM_MPLINK_PIC18_LT_Branch_3_42\pic18-lt\cxx-framework\src\traditional\proc\p18f44j11.asm
              CCP1CONbits   0x000fba       data     extern E:\MPASM_MPLINK_PIC18_LT_Branch_3_42\pic18-lt\cxx-framework\src\traditional\proc\p18f44j11.asm
                  CCP1CON   0x000fba       data     extern E:\MPASM_MPLINK_PIC18_LT_Branch_3_42\pic18-lt\cxx-framework\src\traditional\proc\p18f44j11.asm
             ECCP1CONbits   0x000fba       data     extern E:\MPASM_MPLINK_PIC18_LT_Branch_3_42\pic18-lt\cxx-framework\src\traditional\proc\p18f44j11.asm
                    CCPR1   0x000fbb       data     extern E:\MPASM_MPLINK_PIC18_LT_Branch_3_42\pic18-lt\cxx-framework\src\traditional\proc\p18f44j11.asm
                   CCPR1L   0x000fbb       data     extern E:\MPASM_MPLINK_PIC18_LT_Branch_3_42\pic18-lt\cxx-framework\src\traditional\proc\p18f44j11.asm
                   CCPR1H   0x000fbc       data     extern E:\MPASM_MPLINK_PIC18_LT_Branch_3_42\pic18-lt\cxx-framework\src\traditional\proc\p18f44j11.asm
                 ECCP1DEL   0x000fbd       data     extern E:\MPASM_MPLINK_PIC18_LT_Branch_3_42\pic18-lt\cxx-framework\src\traditional\proc\p18f44j11.asm
             ECCP1DELbits   0x000fbd       data     extern E:\MPASM_MPLINK_PIC18_LT_Branch_3_42\pic18-lt\cxx-framework\src\traditional\proc\p18f44j11.asm
              PWM1CONbits   0x000fbd       data     extern E:\MPASM_MPLINK_PIC18_LT_Branch_3_42\pic18-lt\cxx-framework\src\traditional\proc\p18f44j11.asm
                  PWM1CON   0x000fbd       data     extern E:\MPASM_MPLINK_PIC18_LT_Branch_3_42\pic18-lt\cxx-framework\src\traditional\proc\p18f44j11.asm
              ECCP1ASbits   0x000fbe       data     extern E:\MPASM_MPLINK_PIC18_LT_Branch_3_42\pic18-lt\cxx-framework\src\traditional\proc\p18f44j11.asm
                  ECCP1AS   0x000fbe       data     extern E:\MPASM_MPLINK_PIC18_LT_Branch_3_42\pic18-lt\cxx-framework\src\traditional\proc\p18f44j11.asm
             PSTR1CONbits   0x000fbf       data     extern E:\MPASM_MPLINK_PIC18_LT_Branch_3_42\pic18-lt\cxx-framework\src\traditional\proc\p18f44j11.asm
                 PSTR1CON   0x000fbf       data     extern E:\MPASM_MPLINK_PIC18_LT_Branch_3_42\pic18-lt\cxx-framework\src\traditional\proc\p18f44j11.asm
                   WDTCON   0x000fc0       data     extern E:\MPASM_MPLINK_PIC18_LT_Branch_3_42\pic18-lt\cxx-framework\src\traditional\proc\p18f44j11.asm
               WDTCONbits   0x000fc0       data     extern E:\MPASM_MPLINK_PIC18_LT_Branch_3_42\pic18-lt\cxx-framework\src\traditional\proc\p18f44j11.asm
                   ADCON1   0x000fc1       data     extern E:\MPASM_MPLINK_PIC18_LT_Branch_3_42\pic18-lt\cxx-framework\src\traditional\proc\p18f44j11.asm
               ADCON1bits   0x000fc1       data     extern E:\MPASM_MPLINK_PIC18_LT_Branch_3_42\pic18-lt\cxx-framework\src\traditional\proc\p18f44j11.asm
                   ADCON0   0x000fc2       data     extern E:\MPASM_MPLINK_PIC18_LT_Branch_3_42\pic18-lt\cxx-framework\src\traditional\proc\p18f44j11.asm
               ADCON0bits   0x000fc2       data     extern E:\MPASM_MPLINK_PIC18_LT_Branch_3_42\pic18-lt\cxx-framework\src\traditional\proc\p18f44j11.asm
                    ADRES   0x000fc3       data     extern E:\MPASM_MPLINK_PIC18_LT_Branch_3_42\pic18-lt\cxx-framework\src\traditional\proc\p18f44j11.asm
                   ADRESL   0x000fc3       data     extern E:\MPASM_MPLINK_PIC18_LT_Branch_3_42\pic18-lt\cxx-framework\src\traditional\proc\p18f44j11.asm
                   ADRESH   0x000fc4       data     extern E:\MPASM_MPLINK_PIC18_LT_Branch_3_42\pic18-lt\cxx-framework\src\traditional\proc\p18f44j11.asm
                  SSPCON2   0x000fc5       data     extern E:\MPASM_MPLINK_PIC18_LT_Branch_3_42\pic18-lt\cxx-framework\src\traditional\proc\p18f44j11.asm
              SSPCON2bits   0x000fc5       data     extern E:\MPASM_MPLINK_PIC18_LT_Branch_3_42\pic18-lt\cxx-framework\src\traditional\proc\p18f44j11.asm
                 SSP1CON2   0x000fc5       data     extern E:\MPASM_MPLINK_PIC18_LT_Branch_3_42\pic18-lt\cxx-framework\src\traditional\proc\p18f44j11.asm
             SSP1CON2bits   0x000fc5       data     extern E:\MPASM_MPLINK_PIC18_LT_Branch_3_42\pic18-lt\cxx-framework\src\traditional\proc\p18f44j11.asm
                  SSPCON1   0x000fc6       data     extern E:\MPASM_MPLINK_PIC18_LT_Branch_3_42\pic18-lt\cxx-framework\src\traditional\proc\p18f44j11.asm
              SSPCON1bits   0x000fc6       data     extern E:\MPASM_MPLINK_PIC18_LT_Branch_3_42\pic18-lt\cxx-framework\src\traditional\proc\p18f44j11.asm
                 SSP1CON1   0x000fc6       data     extern E:\MPASM_MPLINK_PIC18_LT_Branch_3_42\pic18-lt\cxx-framework\src\traditional\proc\p18f44j11.asm
             SSP1CON1bits   0x000fc6       data     extern E:\MPASM_MPLINK_PIC18_LT_Branch_3_42\pic18-lt\cxx-framework\src\traditional\proc\p18f44j11.asm
              SSPSTATbits   0x000fc7       data     extern E:\MPASM_MPLINK_PIC18_LT_Branch_3_42\pic18-lt\cxx-framework\src\traditional\proc\p18f44j11.asm
                  SSPSTAT   0x000fc7       data     extern E:\MPASM_MPLINK_PIC18_LT_Branch_3_42\pic18-lt\cxx-framework\src\traditional\proc\p18f44j11.asm
                 SSP1STAT   0x000fc7       data     extern E:\MPASM_MPLINK_PIC18_LT_Branch_3_42\pic18-lt\cxx-framework\src\traditional\proc\p18f44j11.asm
             SSP1STATbits   0x000fc7       data     extern E:\MPASM_MPLINK_PIC18_LT_Branch_3_42\pic18-lt\cxx-framework\src\traditional\proc\p18f44j11.asm
                   SSPADD   0x000fc8       data     extern E:\MPASM_MPLINK_PIC18_LT_Branch_3_42\pic18-lt\cxx-framework\src\traditional\proc\p18f44j11.asm
               SSPADDbits   0x000fc8       data     extern E:\MPASM_MPLINK_PIC18_LT_Branch_3_42\pic18-lt\cxx-framework\src\traditional\proc\p18f44j11.asm
              SSP1ADDbits   0x000fc8       data     extern E:\MPASM_MPLINK_PIC18_LT_Branch_3_42\pic18-lt\cxx-framework\src\traditional\proc\p18f44j11.asm
                  SSP1ADD   0x000fc8       data     extern E:\MPASM_MPLINK_PIC18_LT_Branch_3_42\pic18-lt\cxx-framework\src\traditional\proc\p18f44j11.asm
                   SSPBUF   0x000fc9       data     extern E:\MPASM_MPLINK_PIC18_LT_Branch_3_42\pic18-lt\cxx-framework\src\traditional\proc\p18f44j11.asm
                  SSP1BUF   0x000fc9       data     extern E:\MPASM_MPLINK_PIC18_LT_Branch_3_42\pic18-lt\cxx-framework\src\traditional\proc\p18f44j11.asm
                    T2CON   0x000fca       data     extern E:\MPASM_MPLINK_PIC18_LT_Branch_3_42\pic18-lt\cxx-framework\src\traditional\proc\p18f44j11.asm
                T2CONbits   0x000fca       data     extern E:\MPASM_MPLINK_PIC18_LT_Branch_3_42\pic18-lt\cxx-framework\src\traditional\proc\p18f44j11.asm
                      PR2   0x000fcb       data     extern E:\MPASM_MPLINK_PIC18_LT_Branch_3_42\pic18-lt\cxx-framework\src\traditional\proc\p18f44j11.asm
                     TMR2   0x000fcc       data     extern E:\MPASM_MPLINK_PIC18_LT_Branch_3_42\pic18-lt\cxx-framework\src\traditional\proc\p18f44j11.asm
                    T1CON   0x000fcd       data     extern E:\MPASM_MPLINK_PIC18_LT_Branch_3_42\pic18-lt\cxx-framework\src\traditional\proc\p18f44j11.asm
                T1CONbits   0x000fcd       data     extern E:\MPASM_MPLINK_PIC18_LT_Branch_3_42\pic18-lt\cxx-framework\src\traditional\proc\p18f44j11.asm
                    TMR1L   0x000fce       data     extern E:\MPASM_MPLINK_PIC18_LT_Branch_3_42\pic18-lt\cxx-framework\src\traditional\proc\p18f44j11.asm
                    TMR1H   0x000fcf       data     extern E:\MPASM_MPLINK_PIC18_LT_Branch_3_42\pic18-lt\cxx-framework\src\traditional\proc\p18f44j11.asm
                     RCON   0x000fd0       data     extern E:\MPASM_MPLINK_PIC18_LT_Branch_3_42\pic18-lt\cxx-framework\src\traditional\proc\p18f44j11.asm
                 RCONbits   0x000fd0       data     extern E:\MPASM_MPLINK_PIC18_LT_Branch_3_42\pic18-lt\cxx-framework\src\traditional\proc\p18f44j11.asm
               CM2CONbits   0x000fd1       data     extern E:\MPASM_MPLINK_PIC18_LT_Branch_3_42\pic18-lt\cxx-framework\src\traditional\proc\p18f44j11.asm
              CM2CON1bits   0x000fd1       data     extern E:\MPASM_MPLINK_PIC18_LT_Branch_3_42\pic18-lt\cxx-framework\src\traditional\proc\p18f44j11.asm
                  CM2CON1   0x000fd1       data     extern E:\MPASM_MPLINK_PIC18_LT_Branch_3_42\pic18-lt\cxx-framework\src\traditional\proc\p18f44j11.asm
                   CM2CON   0x000fd1       data     extern E:\MPASM_MPLINK_PIC18_LT_Branch_3_42\pic18-lt\cxx-framework\src\traditional\proc\p18f44j11.asm
                   CM1CON   0x000fd2       data     extern E:\MPASM_MPLINK_PIC18_LT_Branch_3_42\pic18-lt\cxx-framework\src\traditional\proc\p18f44j11.asm
                  CM1CON1   0x000fd2       data     extern E:\MPASM_MPLINK_PIC18_LT_Branch_3_42\pic18-lt\cxx-framework\src\traditional\proc\p18f44j11.asm
              CM1CON1bits   0x000fd2       data     extern E:\MPASM_MPLINK_PIC18_LT_Branch_3_42\pic18-lt\cxx-framework\src\traditional\proc\p18f44j11.asm
               CM1CONbits   0x000fd2       data     extern E:\MPASM_MPLINK_PIC18_LT_Branch_3_42\pic18-lt\cxx-framework\src\traditional\proc\p18f44j11.asm
                   OSCCON   0x000fd3       data     extern E:\MPASM_MPLINK_PIC18_LT_Branch_3_42\pic18-lt\cxx-framework\src\traditional\proc\p18f44j11.asm
               OSCCONbits   0x000fd3       data     extern E:\MPASM_MPLINK_PIC18_LT_Branch_3_42\pic18-lt\cxx-framework\src\traditional\proc\p18f44j11.asm
                T0CONbits   0x000fd5       data     extern E:\MPASM_MPLINK_PIC18_LT_Branch_3_42\pic18-lt\cxx-framework\src\traditional\proc\p18f44j11.asm
                    T0CON   0x000fd5       data     extern E:\MPASM_MPLINK_PIC18_LT_Branch_3_42\pic18-lt\cxx-framework\src\traditional\proc\p18f44j11.asm
                    TMR0L   0x000fd6       data     extern E:\MPASM_MPLINK_PIC18_LT_Branch_3_42\pic18-lt\cxx-framework\src\traditional\proc\p18f44j11.asm
                    TMR0H   0x000fd7       data     extern E:\MPASM_MPLINK_PIC18_LT_Branch_3_42\pic18-lt\cxx-framework\src\traditional\proc\p18f44j11.asm
                   STATUS   0x000fd8       data     extern E:\MPASM_MPLINK_PIC18_LT_Branch_3_42\pic18-lt\cxx-framework\src\traditional\proc\p18f44j11.asm
               STATUSbits   0x000fd8       data     extern E:\MPASM_MPLINK_PIC18_LT_Branch_3_42\pic18-lt\cxx-framework\src\traditional\proc\p18f44j11.asm
                     FSR2   0x000fd9       data     extern E:\MPASM_MPLINK_PIC18_LT_Branch_3_42\pic18-lt\cxx-framework\src\traditional\proc\p18f44j11.asm
                    FSR2L   0x000fd9       data     extern E:\MPASM_MPLINK_PIC18_LT_Branch_3_42\pic18-lt\cxx-framework\src\traditional\proc\p18f44j11.asm
                    FSR2H   0x000fda       data     extern E:\MPASM_MPLINK_PIC18_LT_Branch_3_42\pic18-lt\cxx-framework\src\traditional\proc\p18f44j11.asm
                   PLUSW2   0x000fdb       data     extern E:\MPASM_MPLINK_PIC18_LT_Branch_3_42\pic18-lt\cxx-framework\src\traditional\proc\p18f44j11.asm
                  PREINC2   0x000fdc       data     extern E:\MPASM_MPLINK_PIC18_LT_Branch_3_42\pic18-lt\cxx-framework\src\traditional\proc\p18f44j11.asm
                 POSTDEC2   0x000fdd       data     extern E:\MPASM_MPLINK_PIC18_LT_Branch_3_42\pic18-lt\cxx-framework\src\traditional\proc\p18f44j11.asm
                 POSTINC2   0x000fde       data     extern E:\MPASM_MPLINK_PIC18_LT_Branch_3_42\pic18-lt\cxx-framework\src\traditional\proc\p18f44j11.asm
                    INDF2   0x000fdf       data     extern E:\MPASM_MPLINK_PIC18_LT_Branch_3_42\pic18-lt\cxx-framework\src\traditional\proc\p18f44j11.asm
                      BSR   0x000fe0       data     extern E:\MPASM_MPLINK_PIC18_LT_Branch_3_42\pic18-lt\cxx-framework\src\traditional\proc\p18f44j11.asm
                     FSR1   0x000fe1       data     extern E:\MPASM_MPLINK_PIC18_LT_Branch_3_42\pic18-lt\cxx-framework\src\traditional\proc\p18f44j11.asm
                    FSR1L   0x000fe1       data     extern E:\MPASM_MPLINK_PIC18_LT_Branch_3_42\pic18-lt\cxx-framework\src\traditional\proc\p18f44j11.asm
                    FSR1H   0x000fe2       data     extern E:\MPASM_MPLINK_PIC18_LT_Branch_3_42\pic18-lt\cxx-framework\src\traditional\proc\p18f44j11.asm
                   PLUSW1   0x000fe3       data     extern E:\MPASM_MPLINK_PIC18_LT_Branch_3_42\pic18-lt\cxx-framework\src\traditional\proc\p18f44j11.asm
                  PREINC1   0x000fe4       data     extern E:\MPASM_MPLINK_PIC18_LT_Branch_3_42\pic18-lt\cxx-framework\src\traditional\proc\p18f44j11.asm
                 POSTDEC1   0x000fe5       data     extern E:\MPASM_MPLINK_PIC18_LT_Branch_3_42\pic18-lt\cxx-framework\src\traditional\proc\p18f44j11.asm
                 POSTINC1   0x000fe6       data     extern E:\MPASM_MPLINK_PIC18_LT_Branch_3_42\pic18-lt\cxx-framework\src\traditional\proc\p18f44j11.asm
                    INDF1   0x000fe7       data     extern E:\MPASM_MPLINK_PIC18_LT_Branch_3_42\pic18-lt\cxx-framework\src\traditional\proc\p18f44j11.asm
                     WREG   0x000fe8       data     extern E:\MPASM_MPLINK_PIC18_LT_Branch_3_42\pic18-lt\cxx-framework\src\traditional\proc\p18f44j11.asm
                    FSR0L   0x000fe9       data     extern E:\MPASM_MPLINK_PIC18_LT_Branch_3_42\pic18-lt\cxx-framework\src\traditional\proc\p18f44j11.asm
                     FSR0   0x000fe9       data     extern E:\MPASM_MPLINK_PIC18_LT_Branch_3_42\pic18-lt\cxx-framework\src\traditional\proc\p18f44j11.asm
                    FSR0H   0x000fea       data     extern E:\MPASM_MPLINK_PIC18_LT_Branch_3_42\pic18-lt\cxx-framework\src\traditional\proc\p18f44j11.asm
                   PLUSW0   0x000feb       data     extern E:\MPASM_MPLINK_PIC18_LT_Branch_3_42\pic18-lt\cxx-framework\src\traditional\proc\p18f44j11.asm
                  PREINC0   0x000fec       data     extern E:\MPASM_MPLINK_PIC18_LT_Branch_3_42\pic18-lt\cxx-framework\src\traditional\proc\p18f44j11.asm
                 POSTDEC0   0x000fed       data     extern E:\MPASM_MPLINK_PIC18_LT_Branch_3_42\pic18-lt\cxx-framework\src\traditional\proc\p18f44j11.asm
                 POSTINC0   0x000fee       data     extern E:\MPASM_MPLINK_PIC18_LT_Branch_3_42\pic18-lt\cxx-framework\src\traditional\proc\p18f44j11.asm
                    INDF0   0x000fef       data     extern E:\MPASM_MPLINK_PIC18_LT_Branch_3_42\pic18-lt\cxx-framework\src\traditional\proc\p18f44j11.asm
                  INTCON3   0x000ff0       data     extern E:\MPASM_MPLINK_PIC18_LT_Branch_3_42\pic18-lt\cxx-framework\src\traditional\proc\p18f44j11.asm
              INTCON3bits   0x000ff0       data     extern E:\MPASM_MPLINK_PIC18_LT_Branch_3_42\pic18-lt\cxx-framework\src\traditional\proc\p18f44j11.asm
                  INTCON2   0x000ff1       data     extern E:\MPASM_MPLINK_PIC18_LT_Branch_3_42\pic18-lt\cxx-framework\src\traditional\proc\p18f44j11.asm
              INTCON2bits   0x000ff1       data     extern E:\MPASM_MPLINK_PIC18_LT_Branch_3_42\pic18-lt\cxx-framework\src\traditional\proc\p18f44j11.asm
                   INTCON   0x000ff2       data     extern E:\MPASM_MPLINK_PIC18_LT_Branch_3_42\pic18-lt\cxx-framework\src\traditional\proc\p18f44j11.asm
               INTCONbits   0x000ff2       data     extern E:\MPASM_MPLINK_PIC18_LT_Branch_3_42\pic18-lt\cxx-framework\src\traditional\proc\p18f44j11.asm
                     PROD   0x000ff3       data     extern E:\MPASM_MPLINK_PIC18_LT_Branch_3_42\pic18-lt\cxx-framework\src\traditional\proc\p18f44j11.asm
                    PRODL   0x000ff3       data     extern E:\MPASM_MPLINK_PIC18_LT_Branch_3_42\pic18-lt\cxx-framework\src\traditional\proc\p18f44j11.asm
                    PRODH   0x000ff4       data     extern E:\MPASM_MPLINK_PIC18_LT_Branch_3_42\pic18-lt\cxx-framework\src\traditional\proc\p18f44j11.asm
                   TABLAT   0x000ff5       data     extern E:\MPASM_MPLINK_PIC18_LT_Branch_3_42\pic18-lt\cxx-framework\src\traditional\proc\p18f44j11.asm
                  TBLPTRL   0x000ff6       data     extern E:\MPASM_MPLINK_PIC18_LT_Branch_3_42\pic18-lt\cxx-framework\src\traditional\proc\p18f44j11.asm
                   TBLPTR   0x000ff6       data     extern E:\MPASM_MPLINK_PIC18_LT_Branch_3_42\pic18-lt\cxx-framework\src\traditional\proc\p18f44j11.asm
                  TBLPTRH   0x000ff7       data     extern E:\MPASM_MPLINK_PIC18_LT_Branch_3_42\pic18-lt\cxx-framework\src\traditional\proc\p18f44j11.asm
                  TBLPTRU   0x000ff8       data     extern E:\MPASM_MPLINK_PIC18_LT_Branch_3_42\pic18-lt\cxx-framework\src\traditional\proc\p18f44j11.asm
                       PC   0x000ff9       data     extern E:\MPASM_MPLINK_PIC18_LT_Branch_3_42\pic18-lt\cxx-framework\src\traditional\proc\p18f44j11.asm
                      PCL   0x000ff9       data     extern E:\MPASM_MPLINK_PIC18_LT_Branch_3_42\pic18-lt\cxx-framework\src\traditional\proc\p18f44j11.asm
                   PCLATH   0x000ffa       data     extern E:\MPASM_MPLINK_PIC18_LT_Branch_3_42\pic18-lt\cxx-framework\src\traditional\proc\p18f44j11.asm
                   PCLATU   0x000ffb       data     extern E:\MPASM_MPLINK_PIC18_LT_Branch_3_42\pic18-lt\cxx-framework\src\traditional\proc\p18f44j11.asm
                   STKPTR   0x000ffc       data     extern E:\MPASM_MPLINK_PIC18_LT_Branch_3_42\pic18-lt\cxx-framework\src\traditional\proc\p18f44j11.asm
               STKPTRbits   0x000ffc       data     extern E:\MPASM_MPLINK_PIC18_LT_Branch_3_42\pic18-lt\cxx-framework\src\traditional\proc\p18f44j11.asm
                     TOSL   0x000ffd       data     extern E:\MPASM_MPLINK_PIC18_LT_Branch_3_42\pic18-lt\cxx-framework\src\traditional\proc\p18f44j11.asm
                      TOS   0x000ffd       data     extern E:\MPASM_MPLINK_PIC18_LT_Branch_3_42\pic18-lt\cxx-framework\src\traditional\proc\p18f44j11.asm
                     TOSH   0x000ffe       data     extern E:\MPASM_MPLINK_PIC18_LT_Branch_3_42\pic18-lt\cxx-framework\src\traditional\proc\p18f44j11.asm
                     TOSU   0x000fff       data     extern E:\MPASM_MPLINK_PIC18_LT_Branch_3_42\pic18-lt\cxx-framework\src\traditional\proc\p18f44j11.asm


